; ModuleID = 'wordsort.cc'
source_filename = "wordsort.cc"
target datalayout = "e-m:e-i64:64-f80:128-n8:16:32:64-S128"
target triple = "x86_64-unknown-linux-gnu"

%"class.benchmark::internal::Benchmark" = type { i32 (...)**, %"class.std::basic_string", i32, %"class.std::vector.11", %"class.std::vector.16", i32, i32, double, i64, i32, i8, i8, i32, double (i32)*, %"class.std::vector.0" }
%"class.std::basic_string" = type { %"struct.std::basic_string<char, std::char_traits<char>, std::allocator<char> >::_Alloc_hider" }
%"struct.std::basic_string<char, std::char_traits<char>, std::allocator<char> >::_Alloc_hider" = type { i8* }
%"class.std::vector.11" = type { %"struct.std::_Vector_base.12" }
%"struct.std::_Vector_base.12" = type { %"struct.std::_Vector_base<std::basic_string<char>, std::allocator<std::basic_string<char> > >::_Vector_impl" }
%"struct.std::_Vector_base<std::basic_string<char>, std::allocator<std::basic_string<char> > >::_Vector_impl" = type { %"class.std::basic_string"*, %"class.std::basic_string"*, %"class.std::basic_string"* }
%"class.std::vector.16" = type { %"struct.std::_Vector_base.17" }
%"struct.std::_Vector_base.17" = type { %"struct.std::_Vector_base<std::vector<int, std::allocator<int> >, std::allocator<std::vector<int, std::allocator<int> > > >::_Vector_impl" }
%"struct.std::_Vector_base<std::vector<int, std::allocator<int> >, std::allocator<std::vector<int, std::allocator<int> > > >::_Vector_impl" = type { %"class.std::vector.0"*, %"class.std::vector.0"*, %"class.std::vector.0"* }
%"class.std::vector.0" = type { %"struct.std::_Vector_base.1" }
%"struct.std::_Vector_base.1" = type { %"struct.std::_Vector_base<int, std::allocator<int> >::_Vector_impl" }
%"struct.std::_Vector_base<int, std::allocator<int> >::_Vector_impl" = type { i32*, i32*, i32* }
%"class.std::vector" = type { %"struct.std::_Vector_base" }
%"struct.std::_Vector_base" = type { %"struct.std::_Vector_base<long, std::allocator<long> >::_Vector_impl" }
%"struct.std::_Vector_base<long, std::allocator<long> >::_Vector_impl" = type { i64*, i64*, i64* }
%"class.std::move_iterator" = type { i64* }
%"class.benchmark::State" = type { i8, i8, i64, %"class.std::vector.0", i64, i64, i32, i8, %"class.std::map", i32, i32, i64, %"class.benchmark::internal::ThreadTimer"*, %"class.benchmark::internal::ThreadManager"* }
%"class.std::map" = type { %"class.std::_Rb_tree" }
%"class.std::_Rb_tree" = type { %"struct.std::_Rb_tree<std::basic_string<char>, std::pair<const std::basic_string<char>, benchmark::Counter>, std::_Select1st<std::pair<const std::basic_string<char>, benchmark::Counter> >, std::less<std::basic_string<char> >, std::allocator<std::pair<const std::basic_string<char>, benchmark::Counter> > >::_Rb_tree_impl" }
%"struct.std::_Rb_tree<std::basic_string<char>, std::pair<const std::basic_string<char>, benchmark::Counter>, std::_Select1st<std::pair<const std::basic_string<char>, benchmark::Counter> >, std::less<std::basic_string<char> >, std::allocator<std::pair<const std::basic_string<char>, benchmark::Counter> > >::_Rb_tree_impl" = type { %"struct.std::less", %"struct.std::_Rb_tree_node_base", i64 }
%"struct.std::less" = type { i8 }
%"struct.std::_Rb_tree_node_base" = type { i32, %"struct.std::_Rb_tree_node_base"*, %"struct.std::_Rb_tree_node_base"*, %"struct.std::_Rb_tree_node_base"* }
%"class.benchmark::internal::ThreadTimer" = type opaque
%"class.benchmark::internal::ThreadManager" = type opaque
%"class.std::uniform_int_distribution" = type { %"struct.std::uniform_int_distribution<unsigned long>::param_type" }
%"struct.std::uniform_int_distribution<unsigned long>::param_type" = type { i64, i64 }
%"class.std::linear_congruential_engine" = type { i64 }
%"class.__gnu_cxx::__normal_iterator" = type { i64* }
%"class.std::allocator" = type { i8 }
%"class.__gnu_cxx::__normal_iterator.21" = type { i64* }

$_ZNSt24uniform_int_distributionImEclISt26linear_congruential_engineImLm48271ELm0ELm2147483647EEEEmRT_RKNS0_10param_typeE = comdat any

$_ZSt16__introsort_loopIN9__gnu_cxx17__normal_iteratorIPlSt6vectorIlSaIlEEEElEvT_S7_T0_ = comdat any

$_ZSt22__final_insertion_sortIN9__gnu_cxx17__normal_iteratorIPlSt6vectorIlSaIlEEEEEvT_S7_ = comdat any

$_ZSt9make_heapIN9__gnu_cxx17__normal_iteratorIPlSt6vectorIlSaIlEEEEEvT_S7_ = comdat any

@_ZL21_benchmark_2BM_bubble = internal unnamed_addr global %"class.benchmark::internal::Benchmark"* null, align 8, !dbg !0
@.str = private unnamed_addr constant [10 x i8] c"BM_bubble\00", align 1
@_ZTVN9benchmark8internal17FunctionBenchmarkE = external unnamed_addr constant { [5 x i8*] }
@llvm.global_ctors = appending global [1 x { i32, void ()*, i8* }] [{ i32, void ()*, i8* } { i32 65535, void ()* @_GLOBAL__sub_I_wordsort.cc, i8* null }]

declare i32 @_ZN9benchmark8internal17InitializeStreamsEv() local_unnamed_addr #0

; Function Attrs: nounwind uwtable
define void @_Z5rangei(%"class.std::vector"* noalias nocapture sret, i32) local_unnamed_addr #1 !dbg !2006 {
  tail call void @llvm.dbg.value(metadata i32 %1, i64 0, metadata !2011, metadata !2015), !dbg !2016
  tail call void @llvm.dbg.declare(metadata %"class.std::vector"* %0, metadata !2012, metadata !2015), !dbg !2017
  tail call void @llvm.dbg.value(metadata %"class.std::vector"* %0, i64 0, metadata !2018, metadata !2015) #10, !dbg !2029
  tail call void @llvm.dbg.value(metadata i64 100, i64 0, metadata !2022, metadata !2015) #10, !dbg !2031
  tail call void @llvm.dbg.value(metadata %"class.std::vector"* %0, i64 0, metadata !2032, metadata !2015) #10, !dbg !2036
  %3 = getelementptr inbounds %"class.std::vector", %"class.std::vector"* %0, i64 0, i32 0, i32 0, i32 2, !dbg !2038
  tail call void @llvm.dbg.value(metadata %"class.std::vector"* %0, i64 0, metadata !2039, metadata !2015) #10, !dbg !2042
  %4 = getelementptr inbounds %"class.std::vector", %"class.std::vector"* %0, i64 0, i32 0, i32 0, i32 1, !dbg !2044
  tail call void @llvm.dbg.value(metadata i64 0, i64 0, metadata !2023, metadata !2015) #10, !dbg !2045
  tail call void @llvm.dbg.value(metadata i64** %4, i64 0, metadata !2046, metadata !2058) #10, !dbg !2059
  tail call void @llvm.dbg.value(metadata %"class.std::vector"* %0, i64 0, metadata !2054, metadata !2015) #10, !dbg !2061
  tail call void @llvm.dbg.value(metadata i64 100, i64 0, metadata !2055, metadata !2015) #10, !dbg !2062
  tail call void @llvm.dbg.declare(metadata %"class.std::move_iterator"* undef, metadata !2056, metadata !2015) #10, !dbg !2063
  tail call void @llvm.dbg.declare(metadata %"class.std::move_iterator"* undef, metadata !2046, metadata !2015) #10, !dbg !2059
  tail call void @llvm.dbg.value(metadata i64 100, i64 0, metadata !2064, metadata !2015) #10, !dbg !2069
  tail call void @llvm.dbg.value(metadata i64 100, i64 0, metadata !2071, metadata !2015) #10, !dbg !2077
  tail call void @llvm.dbg.value(metadata i8* null, i64 0, metadata !2076, metadata !2015) #10, !dbg !2079
  %5 = tail call i8* @_Znwm(i64 800) #10, !dbg !2080
  tail call void @llvm.dbg.value(metadata i64* %15, i64 0, metadata !2057, metadata !2015) #10, !dbg !2081
  tail call void @llvm.dbg.value(metadata i64** %4, i64 0, metadata !2082, metadata !2058) #10, !dbg !2094
  tail call void @llvm.dbg.declare(metadata %"class.std::move_iterator"* undef, metadata !2091, metadata !2015) #10, !dbg !2098
  tail call void @llvm.dbg.declare(metadata %"class.std::move_iterator"* undef, metadata !2082, metadata !2015) #10, !dbg !2094
  tail call void @llvm.dbg.value(metadata i64* %15, i64 0, metadata !2092, metadata !2015) #10, !dbg !2099
  tail call void @llvm.dbg.value(metadata i64** %4, i64 0, metadata !2100, metadata !2058) #10, !dbg !2108
  tail call void @llvm.dbg.declare(metadata %"class.std::move_iterator"* undef, metadata !2106, metadata !2015) #10, !dbg !2110
  tail call void @llvm.dbg.declare(metadata %"class.std::move_iterator"* undef, metadata !2100, metadata !2015) #10, !dbg !2108
  tail call void @llvm.dbg.value(metadata i64* %15, i64 0, metadata !2107, metadata !2015) #10, !dbg !2111
  tail call void @llvm.dbg.value(metadata i64** %4, i64 0, metadata !2112, metadata !2058) #10, !dbg !2121
  tail call void @llvm.dbg.declare(metadata %"class.std::move_iterator"* undef, metadata !2119, metadata !2015) #10, !dbg !2123
  tail call void @llvm.dbg.declare(metadata %"class.std::move_iterator"* undef, metadata !2112, metadata !2015) #10, !dbg !2121
  tail call void @llvm.dbg.value(metadata i64* %15, i64 0, metadata !2120, metadata !2015) #10, !dbg !2124
  tail call void @llvm.dbg.value(metadata i64** %4, i64 0, metadata !2125, metadata !2058) #10, !dbg !2135
  tail call void @llvm.dbg.declare(metadata %"class.std::move_iterator"* undef, metadata !2132, metadata !2015) #10, !dbg !2137
  tail call void @llvm.dbg.declare(metadata %"class.std::move_iterator"* undef, metadata !2125, metadata !2015) #10, !dbg !2135
  tail call void @llvm.dbg.value(metadata i64* %15, i64 0, metadata !2134, metadata !2015) #10, !dbg !2138
  tail call void @llvm.dbg.value(metadata i64** %4, i64 0, metadata !2139, metadata !2058) #10, !dbg !2150
  tail call void @llvm.dbg.value(metadata i64* %15, i64 0, metadata !2149, metadata !2015) #10, !dbg !2152
  tail call void @llvm.dbg.value(metadata i64** %4, i64 0, metadata !2153, metadata !2058) #10, !dbg !2159
  tail call void @llvm.dbg.value(metadata i64* %15, i64 0, metadata !2157, metadata !2015) #10, !dbg !2161
  tail call void @llvm.dbg.value(metadata i8 1, i64 0, metadata !2158, metadata !2015) #10, !dbg !2162
  tail call void @llvm.dbg.value(metadata i64** %4, i64 0, metadata !2163, metadata !2058) #10, !dbg !2186
  tail call void @llvm.dbg.value(metadata i64* %15, i64 0, metadata !2183, metadata !2015) #10, !dbg !2188
  tail call void @llvm.dbg.value(metadata i64* %15, i64 0, metadata !2027, metadata !2015) #10, !dbg !2189
  tail call void @llvm.dbg.value(metadata i64* null, i64 0, metadata !2190, metadata !2015) #10, !dbg !2195
  %6 = bitcast %"class.std::vector"* %0 to i8**, !dbg !2197
  store i8* %5, i8** %6, align 8, !dbg !2197, !tbaa !2198
  %7 = bitcast i64** %4 to i8**, !dbg !2204
  store i8* %5, i8** %7, align 8, !dbg !2204, !tbaa !2205
  %8 = getelementptr inbounds i8, i8* %5, i64 800, !dbg !2206
  %9 = bitcast i64** %3 to i8**, !dbg !2207
  store i8* %8, i8** %9, align 8, !dbg !2207, !tbaa !2208
  %10 = ptrtoint i8* %5 to i64, !dbg !2209
  tail call void @llvm.dbg.value(metadata i32 0, i64 0, metadata !2013, metadata !2015), !dbg !2210
  %11 = icmp sgt i32 %1, 0, !dbg !2211
  br i1 %11, label %12, label %77, !dbg !2213

; <label>:12:                                     ; preds = %2
  %13 = ptrtoint i8* %5 to i64, !dbg !2209
  %14 = bitcast i8* %8 to i64*, !dbg !2209
  %15 = bitcast i8* %5 to i64*, !dbg !2214
  %16 = getelementptr inbounds %"class.std::vector", %"class.std::vector"* %0, i64 0, i32 0, i32 0, i32 1
  %17 = bitcast %"class.std::vector"* %0 to i8**
  %18 = sext i32 %1 to i64, !dbg !2213
  br label %19, !dbg !2213

; <label>:19:                                     ; preds = %72, %12
  %20 = phi i64 [ %10, %12 ], [ %66, %72 ]
  %21 = phi i64 [ %13, %12 ], [ %75, %72 ]
  %22 = phi i64 [ %10, %12 ], [ %67, %72 ]
  %23 = phi i64* [ %14, %12 ], [ %74, %72 ], !dbg !2215
  %24 = phi i64* [ %15, %12 ], [ %73, %72 ], !dbg !2234
  %25 = phi i64 [ 0, %12 ], [ %70, %72 ]
  tail call void @llvm.dbg.value(metadata i32 undef, i64 0, metadata !2013, metadata !2015), !dbg !2210
  tail call void @llvm.dbg.value(metadata %"class.std::vector"* %0, i64 0, metadata !2231, metadata !2015) #10, !dbg !2235
  tail call void @llvm.dbg.value(metadata %"class.std::vector"* %0, i64 0, metadata !2226, metadata !2015) #10, !dbg !2236
  %26 = icmp eq i64* %24, %23, !dbg !2237
  br i1 %26, label %29, label %27, !dbg !2238

; <label>:27:                                     ; preds = %19
  tail call void @llvm.dbg.value(metadata i64* %24, i64 0, metadata !2239, metadata !2015) #10, !dbg !2252
  tail call void @llvm.dbg.value(metadata i64* %24, i64 0, metadata !2255, metadata !2015) #10, !dbg !2261
  tail call void @llvm.dbg.value(metadata i64* %24, i64 0, metadata !2263, metadata !2015) #10, !dbg !2273
  store i64 %25, i64* %24, align 8, !dbg !2275, !tbaa !2276
  %28 = getelementptr inbounds i64, i64* %24, i64 1, !dbg !2278
  br label %65, !dbg !2279

; <label>:29:                                     ; preds = %19
  tail call void @llvm.dbg.value(metadata %"class.std::vector"* %0, i64 0, metadata !2280, metadata !2015) #10, !dbg !2288
  tail call void @llvm.dbg.value(metadata %"class.std::vector"* %0, i64 0, metadata !2290, metadata !2015) #10, !dbg !2296
  tail call void @llvm.dbg.value(metadata i64 1, i64 0, metadata !2293, metadata !2015) #10, !dbg !2298
  tail call void @llvm.dbg.value(metadata %"class.std::vector"* %0, i64 0, metadata !2039, metadata !2015) #10, !dbg !2299
  %30 = sub i64 %21, %22, !dbg !2302
  %31 = ashr exact i64 %30, 3, !dbg !2302
  tail call void @llvm.dbg.value(metadata i64 1, i64 0, metadata !2293, metadata !2015) #10, !dbg !2298
  tail call void @llvm.dbg.value(metadata %"class.std::vector"* %0, i64 0, metadata !2039, metadata !2015) #10, !dbg !2303
  tail call void @llvm.dbg.value(metadata %"class.std::vector"* %0, i64 0, metadata !2039, metadata !2015) #10, !dbg !2305
  %32 = icmp eq i64 %31, 0, !dbg !2307
  %33 = select i1 %32, i64 1, i64 %31, !dbg !2318
  %34 = add nsw i64 %33, %31, !dbg !2319
  tail call void @llvm.dbg.value(metadata i64 %34, i64 0, metadata !2295, metadata !2015) #10, !dbg !2320
  tail call void @llvm.dbg.value(metadata %"class.std::vector"* %0, i64 0, metadata !2039, metadata !2015) #10, !dbg !2321
  %35 = icmp ult i64 %34, %31, !dbg !2323
  %36 = icmp ugt i64 %34, 2305843009213693951, !dbg !2324
  %37 = or i1 %35, %36, !dbg !2325
  %38 = select i1 %37, i64 2305843009213693951, i64 %34, !dbg !2325
  tail call void @llvm.dbg.value(metadata i64 %38, i64 0, metadata !2285, metadata !2015) #10, !dbg !2326
  tail call void @llvm.dbg.value(metadata i64 %38, i64 0, metadata !2064, metadata !2015) #10, !dbg !2327
  %39 = icmp eq i64 %38, 0, !dbg !2329
  br i1 %39, label %47, label %40, !dbg !2330

; <label>:40:                                     ; preds = %29
  tail call void @llvm.dbg.value(metadata i64 %38, i64 0, metadata !2071, metadata !2015) #10, !dbg !2331
  tail call void @llvm.dbg.value(metadata i8* null, i64 0, metadata !2076, metadata !2015) #10, !dbg !2333
  %41 = icmp ugt i64 %38, 2305843009213693951, !dbg !2334
  br i1 %41, label %42, label %43, !dbg !2336

; <label>:42:                                     ; preds = %40
  tail call void @_ZSt17__throw_bad_allocv() #9, !dbg !2337
  unreachable, !dbg !2337

; <label>:43:                                     ; preds = %40
  %44 = shl i64 %38, 3, !dbg !2338
  %45 = tail call i8* @_Znwm(i64 %44) #10, !dbg !2339
  %46 = bitcast i8* %45 to i64*, !dbg !2340
  br label %47, !dbg !2330

; <label>:47:                                     ; preds = %43, %29
  %48 = phi i64 [ %20, %43 ], [ %22, %29 ]
  %49 = phi i8* [ %45, %43 ], [ null, %29 ], !dbg !2330
  %50 = phi i64* [ %46, %43 ], [ null, %29 ], !dbg !2330
  tail call void @llvm.dbg.value(metadata i64* %50, i64 0, metadata !2286, metadata !2015) #10, !dbg !2341
  tail call void @llvm.dbg.value(metadata i64* %50, i64 0, metadata !2287, metadata !2015) #10, !dbg !2342
  tail call void @llvm.dbg.value(metadata %"class.std::vector"* %0, i64 0, metadata !2039, metadata !2015) #10, !dbg !2343
  %51 = sub i64 %21, %48, !dbg !2347
  %52 = ashr exact i64 %51, 3, !dbg !2347
  %53 = getelementptr inbounds i64, i64* %50, i64 %52, !dbg !2348
  tail call void @llvm.dbg.value(metadata i64* %53, i64 0, metadata !2239, metadata !2015) #10, !dbg !2349
  tail call void @llvm.dbg.value(metadata i64* %53, i64 0, metadata !2255, metadata !2015) #10, !dbg !2351
  tail call void @llvm.dbg.value(metadata i64* %53, i64 0, metadata !2263, metadata !2015) #10, !dbg !2353
  store i64 %25, i64* %53, align 8, !dbg !2355, !tbaa !2276
  tail call void @llvm.dbg.value(metadata i64* null, i64 0, metadata !2287, metadata !2015) #10, !dbg !2342
  tail call void @llvm.dbg.value(metadata i64** %16, i64 0, metadata !2356, metadata !2058) #10, !dbg !2367
  tail call void @llvm.dbg.value(metadata i64* %50, i64 0, metadata !2365, metadata !2015) #10, !dbg !2369
  tail call void @llvm.dbg.value(metadata i64** %16, i64 0, metadata !2082, metadata !2058) #10, !dbg !2370
  tail call void @llvm.dbg.declare(metadata %"class.std::move_iterator"* undef, metadata !2091, metadata !2015) #10, !dbg !2372
  tail call void @llvm.dbg.declare(metadata %"class.std::move_iterator"* undef, metadata !2082, metadata !2015) #10, !dbg !2370
  tail call void @llvm.dbg.value(metadata i64* %50, i64 0, metadata !2092, metadata !2015) #10, !dbg !2373
  tail call void @llvm.dbg.value(metadata i64** %16, i64 0, metadata !2100, metadata !2058) #10, !dbg !2374
  tail call void @llvm.dbg.declare(metadata %"class.std::move_iterator"* undef, metadata !2106, metadata !2015) #10, !dbg !2376
  tail call void @llvm.dbg.declare(metadata %"class.std::move_iterator"* undef, metadata !2100, metadata !2015) #10, !dbg !2374
  tail call void @llvm.dbg.value(metadata i64* %50, i64 0, metadata !2107, metadata !2015) #10, !dbg !2377
  tail call void @llvm.dbg.value(metadata i64** %16, i64 0, metadata !2112, metadata !2058) #10, !dbg !2378
  tail call void @llvm.dbg.declare(metadata %"class.std::move_iterator"* undef, metadata !2119, metadata !2015) #10, !dbg !2380
  tail call void @llvm.dbg.declare(metadata %"class.std::move_iterator"* undef, metadata !2112, metadata !2015) #10, !dbg !2378
  tail call void @llvm.dbg.value(metadata i64* %50, i64 0, metadata !2120, metadata !2015) #10, !dbg !2381
  tail call void @llvm.dbg.value(metadata i64** %16, i64 0, metadata !2125, metadata !2058) #10, !dbg !2382
  tail call void @llvm.dbg.declare(metadata %"class.std::move_iterator"* undef, metadata !2132, metadata !2015) #10, !dbg !2384
  tail call void @llvm.dbg.declare(metadata %"class.std::move_iterator"* undef, metadata !2125, metadata !2015) #10, !dbg !2382
  tail call void @llvm.dbg.value(metadata i64* %50, i64 0, metadata !2134, metadata !2015) #10, !dbg !2385
  tail call void @llvm.dbg.value(metadata i64** %16, i64 0, metadata !2139, metadata !2058) #10, !dbg !2386
  tail call void @llvm.dbg.value(metadata i64* %50, i64 0, metadata !2149, metadata !2015) #10, !dbg !2388
  tail call void @llvm.dbg.value(metadata i64** %16, i64 0, metadata !2153, metadata !2058) #10, !dbg !2389
  tail call void @llvm.dbg.value(metadata i64* %50, i64 0, metadata !2157, metadata !2015) #10, !dbg !2391
  tail call void @llvm.dbg.value(metadata i8 1, i64 0, metadata !2158, metadata !2015) #10, !dbg !2392
  tail call void @llvm.dbg.value(metadata i64** %16, i64 0, metadata !2163, metadata !2058) #10, !dbg !2393
  tail call void @llvm.dbg.value(metadata i64* %50, i64 0, metadata !2183, metadata !2015) #10, !dbg !2395
  tail call void @llvm.dbg.value(metadata i64 %52, i64 0, metadata !2184, metadata !2015) #10, !dbg !2396
  %54 = icmp eq i64 %52, 0, !dbg !2397
  br i1 %54, label %57, label %55, !dbg !2399

; <label>:55:                                     ; preds = %47
  %56 = inttoptr i64 %48 to i8*, !dbg !2400
  tail call void @llvm.memmove.p0i8.p0i8.i64(i8* %49, i8* %56, i64 %51, i32 8, i1 false) #10, !dbg !2400
  br label %57, !dbg !2400

; <label>:57:                                     ; preds = %55, %47
  tail call void @llvm.dbg.value(metadata i64* %53, i64 0, metadata !2287, metadata !2015) #10, !dbg !2342
  %58 = getelementptr inbounds i64, i64* %53, i64 1, !dbg !2401
  tail call void @llvm.dbg.value(metadata i64* %58, i64 0, metadata !2287, metadata !2015) #10, !dbg !2342
  %59 = icmp eq i64 %48, 0, !dbg !2402
  br i1 %59, label %62, label %60, !dbg !2405

; <label>:60:                                     ; preds = %57
  %61 = inttoptr i64 %48 to i8*, !dbg !2406
  tail call void @_ZdlPv(i8* %61) #10, !dbg !2413
  br label %62, !dbg !2414

; <label>:62:                                     ; preds = %57, %60
  store i8* %49, i8** %17, align 8, !dbg !2415, !tbaa !2198
  store i64* %58, i64** %16, align 8, !dbg !2416, !tbaa !2205
  %63 = getelementptr inbounds i64, i64* %50, i64 %38, !dbg !2417
  %64 = ptrtoint i8* %49 to i64
  br label %65

; <label>:65:                                     ; preds = %27, %62
  %66 = phi i64 [ %20, %27 ], [ %64, %62 ]
  %67 = phi i64 [ %22, %27 ], [ %64, %62 ]
  %68 = phi i64** [ %16, %27 ], [ %3, %62 ]
  %69 = phi i64* [ %28, %27 ], [ %63, %62 ]
  store i64* %69, i64** %68, align 8, !tbaa !2418
  %70 = add nuw nsw i64 %25, 1, !dbg !2419
  %71 = icmp slt i64 %70, %18, !dbg !2211
  br i1 %71, label %72, label %76, !dbg !2213, !llvm.loop !2420

; <label>:72:                                     ; preds = %65
  %73 = load i64*, i64** %16, align 8, !tbaa !2205
  %74 = load i64*, i64** %3, align 8, !tbaa !2208
  %75 = ptrtoint i64* %73 to i64, !dbg !2213
  br label %19, !dbg !2213

; <label>:76:                                     ; preds = %65
  br label %77, !dbg !2422

; <label>:77:                                     ; preds = %76, %2
  ret void, !dbg !2422
}

; Function Attrs: nounwind readnone
declare void @llvm.dbg.declare(metadata, metadata, metadata) #2

; Function Attrs: argmemonly nounwind
declare void @llvm.lifetime.start.p0i8(i64, i8* nocapture) #3

; Function Attrs: argmemonly nounwind
declare void @llvm.lifetime.end.p0i8(i64, i8* nocapture) #3

; Function Attrs: nounwind readonly uwtable
define i32 @_Z3cmpPKvS0_(i8* nocapture readonly, i8* nocapture readonly) #4 !dbg !2423 {
  tail call void @llvm.dbg.value(metadata i8* %0, i64 0, metadata !2425, metadata !2015), !dbg !2427
  tail call void @llvm.dbg.value(metadata i8* %1, i64 0, metadata !2426, metadata !2015), !dbg !2428
  %3 = bitcast i8* %0 to i64*, !dbg !2429
  %4 = load i64, i64* %3, align 8, !dbg !2430, !tbaa !2276
  %5 = bitcast i8* %1 to i64*, !dbg !2431
  %6 = load i64, i64* %5, align 8, !dbg !2432, !tbaa !2276
  %7 = sub nsw i64 %4, %6, !dbg !2433
  %8 = trunc i64 %7 to i32, !dbg !2430
  ret i32 %8, !dbg !2434
}

; Function Attrs: nounwind uwtable
define void @_Z13BM_copy_qsortRN9benchmark5StateE(%"class.benchmark::State"* dereferenceable(144)) local_unnamed_addr #1 !dbg !2435 {
  %2 = alloca <2 x i64>, align 16
  %3 = bitcast <2 x i64>* %2 to %"class.std::uniform_int_distribution"*
  %4 = alloca %"struct.std::uniform_int_distribution<unsigned long>::param_type", align 8
  %5 = alloca %"class.std::vector", align 8
  %6 = alloca %"class.std::linear_congruential_engine", align 8
  tail call void @llvm.dbg.value(metadata %"class.benchmark::State"* %0, i64 0, metadata !3546, metadata !2015), !dbg !3552
  %7 = bitcast %"class.std::vector"* %5 to i8*, !dbg !3553
  call void @llvm.lifetime.start.p0i8(i64 24, i8* nonnull %7) #10, !dbg !3553
  tail call void @llvm.dbg.value(metadata %"class.benchmark::State"* %0, i64 0, metadata !3554, metadata !2015), !dbg !3559
  tail call void @llvm.dbg.value(metadata i64 0, i64 0, metadata !3557, metadata !2015), !dbg !3561
  tail call void @llvm.dbg.value(metadata %"class.benchmark::State"* %0, i64 0, metadata !3562, metadata !3567), !dbg !3568
  tail call void @llvm.dbg.value(metadata i64 0, i64 0, metadata !3565, metadata !2015), !dbg !3570
  %8 = getelementptr inbounds %"class.benchmark::State", %"class.benchmark::State"* %0, i64 0, i32 3, i32 0, i32 0, i32 0, !dbg !3571
  %9 = load i32*, i32** %8, align 8, !dbg !3571, !tbaa !3572
  %10 = load i32, i32* %9, align 4, !dbg !3575, !tbaa !3576
  tail call void @llvm.dbg.value(metadata %"class.std::vector"* %5, i64 0, metadata !3547, metadata !2015), !dbg !3578
  call void @_Z5rangei(%"class.std::vector"* nonnull sret %5, i32 %10), !dbg !3579
  %11 = bitcast %"class.std::linear_congruential_engine"* %6 to i8*, !dbg !3580
  call void @llvm.lifetime.start.p0i8(i64 8, i8* nonnull %11) #10, !dbg !3580
  tail call void @llvm.dbg.value(metadata %"class.std::linear_congruential_engine"* %6, i64 0, metadata !3548, metadata !2015), !dbg !3581
  %12 = getelementptr inbounds %"class.std::linear_congruential_engine", %"class.std::linear_congruential_engine"* %6, i64 0, i32 0
  store i64 200, i64* %12, align 8, !tbaa !3582
  tail call void @llvm.dbg.value(metadata %"class.std::vector"* %5, i64 0, metadata !3547, metadata !2015), !dbg !3578
  tail call void @llvm.dbg.value(metadata %"class.std::vector"* %5, i64 0, metadata !3584, metadata !2015), !dbg !3587
  tail call void @llvm.dbg.value(metadata %"class.__gnu_cxx::__normal_iterator"* undef, i64 0, metadata !3589, metadata !2015), !dbg !3594
  tail call void @llvm.dbg.value(metadata %"class.std::vector"* %5, i64 0, metadata !3592, metadata !2015), !dbg !3596
  %13 = getelementptr inbounds %"class.std::vector", %"class.std::vector"* %5, i64 0, i32 0, i32 0, i32 0, !dbg !3597
  %14 = load i64*, i64** %13, align 8, !dbg !3597, !tbaa !2418
  tail call void @llvm.dbg.value(metadata %"class.std::vector"* %5, i64 0, metadata !3547, metadata !2015), !dbg !3578
  tail call void @llvm.dbg.value(metadata %"class.std::vector"* %5, i64 0, metadata !3598, metadata !2015), !dbg !3601
  %15 = getelementptr inbounds %"class.std::vector", %"class.std::vector"* %5, i64 0, i32 0, i32 0, i32 1, !dbg !3603
  tail call void @llvm.dbg.value(metadata %"class.__gnu_cxx::__normal_iterator"* undef, i64 0, metadata !3589, metadata !2015), !dbg !3604
  tail call void @llvm.dbg.value(metadata i64** %15, i64 0, metadata !3592, metadata !2015), !dbg !3606
  %16 = load i64*, i64** %15, align 8, !dbg !3607, !tbaa !2418
  tail call void @llvm.dbg.value(metadata %"class.std::linear_congruential_engine"* %6, i64 0, metadata !3548, metadata !2015), !dbg !3581
  %17 = ptrtoint i64* %14 to i64
  tail call void @llvm.dbg.value(metadata %"class.std::linear_congruential_engine"* %6, i64 0, metadata !3608, metadata !2015) #10, !dbg !3621
  tail call void @llvm.dbg.value(metadata %"class.__gnu_cxx::__normal_iterator"* undef, i64 0, metadata !3615, metadata !2015) #10, !dbg !3623
  tail call void @llvm.dbg.value(metadata %"class.__gnu_cxx::__normal_iterator"* undef, i64 0, metadata !3616, metadata !2015) #10, !dbg !3624
  tail call void @llvm.dbg.value(metadata %"class.__gnu_cxx::__normal_iterator"* undef, i64 0, metadata !3625, metadata !2015) #10, !dbg !3632
  tail call void @llvm.dbg.value(metadata %"class.__gnu_cxx::__normal_iterator"* undef, i64 0, metadata !3631, metadata !2015) #10, !dbg !3635
  %18 = icmp eq i64* %14, %16, !dbg !3636
  %19 = ptrtoint i64* %16 to i64, !dbg !3637
  br i1 %18, label %30, label %20, !dbg !3637

; <label>:20:                                     ; preds = %1
  %21 = bitcast <2 x i64>* %2 to i8*, !dbg !3638
  call void @llvm.lifetime.start.p0i8(i64 16, i8* nonnull %21) #10, !dbg !3638
  tail call void @llvm.dbg.value(metadata %"class.std::uniform_int_distribution"* %3, i64 0, metadata !3617, metadata !2015) #10, !dbg !3639
  tail call void @llvm.dbg.value(metadata %"class.std::uniform_int_distribution"* %3, i64 0, metadata !3640, metadata !2015) #10, !dbg !3645
  tail call void @llvm.dbg.value(metadata i64 0, i64 0, metadata !3643, metadata !2015) #10, !dbg !3647
  tail call void @llvm.dbg.value(metadata i64 -1, i64 0, metadata !3644, metadata !2015) #10, !dbg !3648
  tail call void @llvm.dbg.value(metadata %"class.std::uniform_int_distribution"* %3, i64 0, metadata !3649, metadata !2015) #10, !dbg !3655
  tail call void @llvm.dbg.value(metadata i64 0, i64 0, metadata !3652, metadata !2015) #10, !dbg !3657
  tail call void @llvm.dbg.value(metadata i64 -1, i64 0, metadata !3653, metadata !2015) #10, !dbg !3658
  store <2 x i64> <i64 0, i64 -1>, <2 x i64>* %2, align 16, !dbg !3659, !tbaa !2276
  tail call void @llvm.dbg.value(metadata %"class.__gnu_cxx::__normal_iterator"* undef, i64 0, metadata !3615, metadata !2015) #10, !dbg !3623
  tail call void @llvm.dbg.value(metadata %"class.__gnu_cxx::__normal_iterator"* undef, i64 0, metadata !3660, metadata !2015) #10, !dbg !3665
  %22 = getelementptr inbounds i64, i64* %14, i64 1
  tail call void @llvm.dbg.value(metadata %"class.__gnu_cxx::__normal_iterator"* undef, i64 0, metadata !3616, metadata !2015) #10, !dbg !3624
  tail call void @llvm.dbg.value(metadata %"class.__gnu_cxx::__normal_iterator"* undef, i64 0, metadata !3619, metadata !2015) #10, !dbg !3667
  tail call void @llvm.dbg.value(metadata %"class.__gnu_cxx::__normal_iterator"* undef, i64 0, metadata !3668, metadata !2015) #10, !dbg !3672
  tail call void @llvm.dbg.value(metadata %"class.__gnu_cxx::__normal_iterator"* undef, i64 0, metadata !3671, metadata !2015) #10, !dbg !3675
  %23 = icmp eq i64* %22, %16, !dbg !3676
  br i1 %23, label %29, label %24, !dbg !3677

; <label>:24:                                     ; preds = %20
  %25 = bitcast %"struct.std::uniform_int_distribution<unsigned long>::param_type"* %4 to i8*
  %26 = getelementptr inbounds %"struct.std::uniform_int_distribution<unsigned long>::param_type", %"struct.std::uniform_int_distribution<unsigned long>::param_type"* %4, i64 0, i32 0
  %27 = getelementptr inbounds %"struct.std::uniform_int_distribution<unsigned long>::param_type", %"struct.std::uniform_int_distribution<unsigned long>::param_type"* %4, i64 0, i32 1
  br label %74, !dbg !3677

; <label>:28:                                     ; preds = %74
  br label %29, !dbg !3678

; <label>:29:                                     ; preds = %28, %20
  call void @llvm.lifetime.end.p0i8(i64 16, i8* nonnull %21) #10, !dbg !3678
  br label %30, !dbg !3678

; <label>:30:                                     ; preds = %1, %29
  %31 = getelementptr inbounds %"class.benchmark::State", %"class.benchmark::State"* %0, i64 0, i32 0
  %32 = getelementptr inbounds %"class.benchmark::State", %"class.benchmark::State"* %0, i64 0, i32 2
  %33 = getelementptr inbounds %"class.benchmark::State", %"class.benchmark::State"* %0, i64 0, i32 11
  %34 = sub i64 %19, %17
  %35 = ashr exact i64 %34, 3
  %36 = icmp eq i64 %35, 0
  %37 = icmp eq i64 %34, 0
  %38 = bitcast i64* %14 to i8*
  br i1 %36, label %39, label %62, !dbg !3679

; <label>:39:                                     ; preds = %30
  br i1 %37, label %41, label %40, !dbg !3679

; <label>:40:                                     ; preds = %39
  br label %52, !dbg !3679

; <label>:41:                                     ; preds = %39
  br label %42, !dbg !3679

; <label>:42:                                     ; preds = %41, %51
  call void @llvm.dbg.value(metadata %"class.benchmark::State"* %0, i64 0, metadata !3683, metadata !2015) #10, !dbg !3687
  %43 = load i8, i8* %31, align 8, !dbg !3679, !tbaa !3688, !range !3698
  %44 = icmp eq i8 %43, 1, !dbg !3679
  br i1 %44, label %46, label %45, !dbg !3699, !prof !3700

; <label>:45:                                     ; preds = %42
  call void @_ZN9benchmark5State16StartKeepRunningEv(%"class.benchmark::State"* nonnull %0) #10, !dbg !3701
  br label %46, !dbg !3703

; <label>:46:                                     ; preds = %45, %42
  %47 = load i64, i64* %32, align 8, !dbg !3704, !tbaa !3705
  %48 = add i64 %47, 1, !dbg !3704
  store i64 %48, i64* %32, align 8, !dbg !3704, !tbaa !3705
  %49 = load i64, i64* %33, align 8, !dbg !3706, !tbaa !3707
  %50 = icmp ult i64 %47, %49, !dbg !3708
  br i1 %50, label %51, label %99, !dbg !3709, !prof !3700

; <label>:51:                                     ; preds = %46
  call void @llvm.dbg.value(metadata %"class.std::vector"* %5, i64 0, metadata !3547, metadata !2015), !dbg !3578
  call void @llvm.dbg.value(metadata %"class.std::vector"* undef, i64 0, metadata !3550, metadata !2015), !dbg !3710
  call void @llvm.dbg.value(metadata %"class.std::vector"* undef, i64 0, metadata !3711, metadata !2015) #10, !dbg !3715
  call void @llvm.dbg.value(metadata %"class.std::vector"* %5, i64 0, metadata !3714, metadata !2015) #10, !dbg !3717
  call void @llvm.dbg.value(metadata %"class.std::vector"* undef, i64 0, metadata !3718, metadata !2015) #10, !dbg !3723
  call void @llvm.dbg.value(metadata i64 %35, i64 0, metadata !3721, metadata !2015) #10, !dbg !3725
  call void @llvm.dbg.value(metadata %"class.std::allocator"* undef, i64 0, metadata !3722, metadata !2015) #10, !dbg !3726
  call void @llvm.dbg.value(metadata %"class.std::vector"* undef, i64 0, metadata !3727, metadata !2015) #10, !dbg !3731
  call void @llvm.dbg.value(metadata i64 %35, i64 0, metadata !3730, metadata !2015) #10, !dbg !3734
  call void @llvm.dbg.value(metadata %"class.std::vector"* undef, i64 0, metadata !2067, metadata !2015) #10, !dbg !3735
  call void @llvm.dbg.value(metadata i64 %35, i64 0, metadata !2064, metadata !2015) #10, !dbg !3737
  call void @llvm.dbg.value(metadata i64** %15, i64 0, metadata !3738, metadata !2058) #10, !dbg !3748
  call void @llvm.dbg.declare(metadata %"class.__gnu_cxx::__normal_iterator.21"* undef, metadata !3745, metadata !2015) #10, !dbg !3751
  call void @llvm.dbg.declare(metadata %"class.__gnu_cxx::__normal_iterator.21"* undef, metadata !3738, metadata !2015) #10, !dbg !3748
  call void @llvm.dbg.value(metadata i64* null, i64 0, metadata !3746, metadata !2015) #10, !dbg !3752
  call void @llvm.dbg.value(metadata i64** %15, i64 0, metadata !3753, metadata !2058) #10, !dbg !3761
  call void @llvm.dbg.declare(metadata %"class.__gnu_cxx::__normal_iterator.21"* undef, metadata !3759, metadata !2015) #10, !dbg !3763
  call void @llvm.dbg.declare(metadata %"class.__gnu_cxx::__normal_iterator.21"* undef, metadata !3753, metadata !2015) #10, !dbg !3761
  call void @llvm.dbg.value(metadata i64* null, i64 0, metadata !3760, metadata !2015) #10, !dbg !3764
  call void @llvm.dbg.value(metadata i64** %15, i64 0, metadata !3765, metadata !2058) #10, !dbg !3771
  call void @llvm.dbg.declare(metadata %"class.__gnu_cxx::__normal_iterator.21"* undef, metadata !3769, metadata !2015) #10, !dbg !3773
  call void @llvm.dbg.declare(metadata %"class.__gnu_cxx::__normal_iterator.21"* undef, metadata !3765, metadata !2015) #10, !dbg !3771
  call void @llvm.dbg.value(metadata i64* null, i64 0, metadata !3770, metadata !2015) #10, !dbg !3774
  call void @llvm.dbg.value(metadata i64** %15, i64 0, metadata !3775, metadata !2058) #10, !dbg !3782
  call void @llvm.dbg.declare(metadata %"class.__gnu_cxx::__normal_iterator.21"* undef, metadata !3780, metadata !2015) #10, !dbg !3784
  call void @llvm.dbg.declare(metadata %"class.__gnu_cxx::__normal_iterator.21"* undef, metadata !3775, metadata !2015) #10, !dbg !3782
  call void @llvm.dbg.value(metadata i64* null, i64 0, metadata !3781, metadata !2015) #10, !dbg !3785
  call void @llvm.dbg.value(metadata i64** %15, i64 0, metadata !3786, metadata !2058) #10, !dbg !3794
  call void @llvm.dbg.declare(metadata %"class.__gnu_cxx::__normal_iterator.21"* undef, metadata !3792, metadata !2015) #10, !dbg !3796
  call void @llvm.dbg.declare(metadata %"class.__gnu_cxx::__normal_iterator.21"* undef, metadata !3786, metadata !2015) #10, !dbg !3794
  call void @llvm.dbg.value(metadata i64* null, i64 0, metadata !3793, metadata !2015) #10, !dbg !3797
  call void @llvm.dbg.value(metadata i64** %15, i64 0, metadata !3798, metadata !2058) #10, !dbg !3806
  call void @llvm.dbg.value(metadata i64* null, i64 0, metadata !3804, metadata !2015) #10, !dbg !3808
  call void @llvm.dbg.value(metadata i8 1, i64 0, metadata !3805, metadata !2015) #10, !dbg !3809
  call void @llvm.dbg.value(metadata i64** %15, i64 0, metadata !3810, metadata !2058) #10, !dbg !3820
  call void @llvm.dbg.value(metadata i64* null, i64 0, metadata !3818, metadata !2015) #10, !dbg !3822
  call void @llvm.dbg.value(metadata %"class.std::vector"* undef, i64 0, metadata !3550, metadata !2015), !dbg !3710
  call void @llvm.dbg.value(metadata %"class.std::vector"* undef, i64 0, metadata !3550, metadata !2015), !dbg !3710
  call void @qsort(i8* null, i64 0, i64 8, i32 (i8*, i8*)* nonnull @_Z3cmpPKvS0_) #10, !dbg !3823
  call void @llvm.dbg.value(metadata %"class.std::vector"* undef, i64 0, metadata !3550, metadata !2015), !dbg !3710
  call void @llvm.dbg.value(metadata %"class.std::vector"* undef, i64 0, metadata !3824, metadata !2015) #10, !dbg !3827
  call void @llvm.dbg.value(metadata %"class.std::vector"* undef, i64 0, metadata !3829, metadata !2015) #10, !dbg !3832
  call void @llvm.dbg.value(metadata %"class.std::vector"* undef, i64 0, metadata !2193, metadata !2015) #10, !dbg !3835
  call void @llvm.dbg.value(metadata i64* null, i64 0, metadata !2190, metadata !2015) #10, !dbg !3838
  br label %42, !dbg !3687, !llvm.loop !3839

; <label>:52:                                     ; preds = %40, %61
  call void @llvm.dbg.value(metadata %"class.benchmark::State"* %0, i64 0, metadata !3683, metadata !2015) #10, !dbg !3687
  %53 = load i8, i8* %31, align 8, !dbg !3679, !tbaa !3688, !range !3698
  %54 = icmp eq i8 %53, 1, !dbg !3679
  br i1 %54, label %56, label %55, !dbg !3699, !prof !3700

; <label>:55:                                     ; preds = %52
  call void @_ZN9benchmark5State16StartKeepRunningEv(%"class.benchmark::State"* nonnull %0) #10, !dbg !3701
  br label %56, !dbg !3703

; <label>:56:                                     ; preds = %55, %52
  %57 = load i64, i64* %32, align 8, !dbg !3704, !tbaa !3705
  %58 = add i64 %57, 1, !dbg !3704
  store i64 %58, i64* %32, align 8, !dbg !3704, !tbaa !3705
  %59 = load i64, i64* %33, align 8, !dbg !3706, !tbaa !3707
  %60 = icmp ult i64 %57, %59, !dbg !3708
  br i1 %60, label %61, label %100, !dbg !3709, !prof !3700

; <label>:61:                                     ; preds = %56
  call void @llvm.dbg.value(metadata %"class.std::vector"* %5, i64 0, metadata !3547, metadata !2015), !dbg !3578
  call void @llvm.dbg.value(metadata %"class.std::vector"* undef, i64 0, metadata !3550, metadata !2015), !dbg !3710
  call void @llvm.dbg.value(metadata %"class.std::vector"* undef, i64 0, metadata !3711, metadata !2015) #10, !dbg !3715
  call void @llvm.dbg.value(metadata %"class.std::vector"* %5, i64 0, metadata !3714, metadata !2015) #10, !dbg !3717
  call void @llvm.dbg.value(metadata %"class.std::vector"* undef, i64 0, metadata !3718, metadata !2015) #10, !dbg !3723
  call void @llvm.dbg.value(metadata i64 %35, i64 0, metadata !3721, metadata !2015) #10, !dbg !3725
  call void @llvm.dbg.value(metadata %"class.std::allocator"* undef, i64 0, metadata !3722, metadata !2015) #10, !dbg !3726
  call void @llvm.dbg.value(metadata %"class.std::vector"* undef, i64 0, metadata !3727, metadata !2015) #10, !dbg !3731
  call void @llvm.dbg.value(metadata i64 %35, i64 0, metadata !3730, metadata !2015) #10, !dbg !3734
  call void @llvm.dbg.value(metadata %"class.std::vector"* undef, i64 0, metadata !2067, metadata !2015) #10, !dbg !3735
  call void @llvm.dbg.value(metadata i64 %35, i64 0, metadata !2064, metadata !2015) #10, !dbg !3737
  call void @llvm.dbg.value(metadata i64** %15, i64 0, metadata !3738, metadata !2058) #10, !dbg !3748
  call void @llvm.dbg.declare(metadata %"class.__gnu_cxx::__normal_iterator.21"* undef, metadata !3745, metadata !2015) #10, !dbg !3751
  call void @llvm.dbg.declare(metadata %"class.__gnu_cxx::__normal_iterator.21"* undef, metadata !3738, metadata !2015) #10, !dbg !3748
  call void @llvm.dbg.value(metadata i64* null, i64 0, metadata !3746, metadata !2015) #10, !dbg !3752
  call void @llvm.dbg.value(metadata i64** %15, i64 0, metadata !3753, metadata !2058) #10, !dbg !3761
  call void @llvm.dbg.declare(metadata %"class.__gnu_cxx::__normal_iterator.21"* undef, metadata !3759, metadata !2015) #10, !dbg !3763
  call void @llvm.dbg.declare(metadata %"class.__gnu_cxx::__normal_iterator.21"* undef, metadata !3753, metadata !2015) #10, !dbg !3761
  call void @llvm.dbg.value(metadata i64* null, i64 0, metadata !3760, metadata !2015) #10, !dbg !3764
  call void @llvm.dbg.value(metadata i64** %15, i64 0, metadata !3765, metadata !2058) #10, !dbg !3771
  call void @llvm.dbg.declare(metadata %"class.__gnu_cxx::__normal_iterator.21"* undef, metadata !3769, metadata !2015) #10, !dbg !3773
  call void @llvm.dbg.declare(metadata %"class.__gnu_cxx::__normal_iterator.21"* undef, metadata !3765, metadata !2015) #10, !dbg !3771
  call void @llvm.dbg.value(metadata i64* null, i64 0, metadata !3770, metadata !2015) #10, !dbg !3774
  call void @llvm.dbg.value(metadata i64** %15, i64 0, metadata !3775, metadata !2058) #10, !dbg !3782
  call void @llvm.dbg.declare(metadata %"class.__gnu_cxx::__normal_iterator.21"* undef, metadata !3780, metadata !2015) #10, !dbg !3784
  call void @llvm.dbg.declare(metadata %"class.__gnu_cxx::__normal_iterator.21"* undef, metadata !3775, metadata !2015) #10, !dbg !3782
  call void @llvm.dbg.value(metadata i64* null, i64 0, metadata !3781, metadata !2015) #10, !dbg !3785
  call void @llvm.dbg.value(metadata i64** %15, i64 0, metadata !3786, metadata !2058) #10, !dbg !3794
  call void @llvm.dbg.declare(metadata %"class.__gnu_cxx::__normal_iterator.21"* undef, metadata !3792, metadata !2015) #10, !dbg !3796
  call void @llvm.dbg.declare(metadata %"class.__gnu_cxx::__normal_iterator.21"* undef, metadata !3786, metadata !2015) #10, !dbg !3794
  call void @llvm.dbg.value(metadata i64* null, i64 0, metadata !3793, metadata !2015) #10, !dbg !3797
  call void @llvm.dbg.value(metadata i64** %15, i64 0, metadata !3798, metadata !2058) #10, !dbg !3806
  call void @llvm.dbg.value(metadata i64* null, i64 0, metadata !3804, metadata !2015) #10, !dbg !3808
  call void @llvm.dbg.value(metadata i8 1, i64 0, metadata !3805, metadata !2015) #10, !dbg !3809
  call void @llvm.dbg.value(metadata i64** %15, i64 0, metadata !3810, metadata !2058) #10, !dbg !3820
  call void @llvm.dbg.value(metadata i64* null, i64 0, metadata !3818, metadata !2015) #10, !dbg !3822
  call void @llvm.memcpy.p0i8.p0i8.i64(i8* null, i8* %38, i64 %34, i32 8, i1 false) #10, !dbg !3842
  call void @llvm.dbg.value(metadata %"class.std::vector"* undef, i64 0, metadata !3550, metadata !2015), !dbg !3710
  call void @llvm.dbg.value(metadata %"class.std::vector"* undef, i64 0, metadata !3550, metadata !2015), !dbg !3710
  call void @qsort(i8* null, i64 0, i64 8, i32 (i8*, i8*)* nonnull @_Z3cmpPKvS0_) #10, !dbg !3823
  call void @llvm.dbg.value(metadata %"class.std::vector"* undef, i64 0, metadata !3550, metadata !2015), !dbg !3710
  call void @llvm.dbg.value(metadata %"class.std::vector"* undef, i64 0, metadata !3824, metadata !2015) #10, !dbg !3827
  call void @llvm.dbg.value(metadata %"class.std::vector"* undef, i64 0, metadata !3829, metadata !2015) #10, !dbg !3832
  call void @llvm.dbg.value(metadata %"class.std::vector"* undef, i64 0, metadata !2193, metadata !2015) #10, !dbg !3835
  call void @llvm.dbg.value(metadata i64* null, i64 0, metadata !2190, metadata !2015) #10, !dbg !3838
  br label %52, !dbg !3687, !llvm.loop !3839

; <label>:62:                                     ; preds = %30
  %63 = icmp ugt i64 %35, 2305843009213693951
  br i1 %63, label %65, label %64, !dbg !3679

; <label>:64:                                     ; preds = %62
  br label %85, !dbg !3679

; <label>:65:                                     ; preds = %62
  call void @llvm.dbg.value(metadata %"class.benchmark::State"* %0, i64 0, metadata !3683, metadata !2015) #10, !dbg !3687
  %66 = load i8, i8* %31, align 8, !dbg !3679, !tbaa !3688, !range !3698
  %67 = icmp eq i8 %66, 1, !dbg !3679
  br i1 %67, label %69, label %68, !dbg !3699, !prof !3700

; <label>:68:                                     ; preds = %65
  call void @_ZN9benchmark5State16StartKeepRunningEv(%"class.benchmark::State"* nonnull %0) #10, !dbg !3701
  br label %69, !dbg !3703

; <label>:69:                                     ; preds = %68, %65
  %70 = load i64, i64* %32, align 8, !dbg !3704, !tbaa !3705
  %71 = add i64 %70, 1, !dbg !3704
  store i64 %71, i64* %32, align 8, !dbg !3704, !tbaa !3705
  %72 = load i64, i64* %33, align 8, !dbg !3706, !tbaa !3707
  %73 = icmp ult i64 %70, %72, !dbg !3708
  br i1 %73, label %94, label %102, !dbg !3709, !prof !3700

; <label>:74:                                     ; preds = %74, %24
  %75 = phi i64* [ %22, %24 ], [ %83, %74 ]
  %76 = ptrtoint i64* %75 to i64
  call void @llvm.lifetime.start.p0i8(i64 16, i8* nonnull %25) #10, !dbg !3844
  call void @llvm.dbg.value(metadata %"class.__gnu_cxx::__normal_iterator"* undef, i64 0, metadata !3615, metadata !2015) #10, !dbg !3623
  call void @llvm.dbg.value(metadata %"class.__gnu_cxx::__normal_iterator"* undef, i64 0, metadata !3619, metadata !2015) #10, !dbg !3667
  call void @llvm.dbg.value(metadata %"class.__gnu_cxx::__normal_iterator"* undef, i64 0, metadata !3845, metadata !2015) #10, !dbg !3851
  call void @llvm.dbg.value(metadata %"class.__gnu_cxx::__normal_iterator"* undef, i64 0, metadata !3850, metadata !2015) #10, !dbg !3853
  %77 = sub i64 %76, %17, !dbg !3854
  %78 = ashr exact i64 %77, 3, !dbg !3854
  call void @llvm.dbg.value(metadata %"struct.std::uniform_int_distribution<unsigned long>::param_type"* %4, i64 0, metadata !3649, metadata !2015) #10, !dbg !3855
  call void @llvm.dbg.value(metadata i64 0, i64 0, metadata !3652, metadata !2015) #10, !dbg !3857
  call void @llvm.dbg.value(metadata i64 %78, i64 0, metadata !3653, metadata !2015) #10, !dbg !3858
  store i64 0, i64* %26, align 8, !dbg !3859, !tbaa !3860
  store i64 %78, i64* %27, align 8, !dbg !3862, !tbaa !3863
  call void @llvm.dbg.value(metadata %"class.std::uniform_int_distribution"* %3, i64 0, metadata !3617, metadata !2015) #10, !dbg !3639
  %79 = call i64 @_ZNSt24uniform_int_distributionImEclISt26linear_congruential_engineImLm48271ELm0ELm2147483647EEEEmRT_RKNS0_10param_typeE(%"class.std::uniform_int_distribution"* nonnull %3, %"class.std::linear_congruential_engine"* nonnull dereferenceable(8) %6, %"struct.std::uniform_int_distribution<unsigned long>::param_type"* nonnull dereferenceable(16) %4) #10, !dbg !3864
  call void @llvm.dbg.value(metadata %"class.__gnu_cxx::__normal_iterator"* undef, i64 0, metadata !3615, metadata !2015) #10, !dbg !3623
  call void @llvm.dbg.value(metadata %"class.__gnu_cxx::__normal_iterator"* undef, i64 0, metadata !3660, metadata !2015) #10, !dbg !3865
  %80 = getelementptr inbounds i64, i64* %14, i64 %79, !dbg !3867
  call void @llvm.dbg.value(metadata %"class.__gnu_cxx::__normal_iterator"* undef, i64 0, metadata !3868, metadata !2015) #10, !dbg !3877
  call void @llvm.dbg.value(metadata %"class.__gnu_cxx::__normal_iterator"* undef, i64 0, metadata !3876, metadata !2015) #10, !dbg !3879
  call void @llvm.dbg.value(metadata i64* %75, i64 0, metadata !3880, metadata !2015) #10, !dbg !3888
  call void @llvm.dbg.value(metadata i64* %80, i64 0, metadata !3886, metadata !2015) #10, !dbg !3890
  %81 = load i64, i64* %75, align 8, !dbg !3891, !tbaa !2276
  call void @llvm.dbg.value(metadata i64 %81, i64 0, metadata !3887, metadata !2015) #10, !dbg !3892
  %82 = load i64, i64* %80, align 8, !dbg !3893, !tbaa !2276
  store i64 %82, i64* %75, align 8, !dbg !3894, !tbaa !2276
  store i64 %81, i64* %80, align 8, !dbg !3895, !tbaa !2276
  call void @llvm.lifetime.end.p0i8(i64 16, i8* nonnull %25) #10, !dbg !3896
  call void @llvm.dbg.value(metadata %"class.__gnu_cxx::__normal_iterator"* undef, i64 0, metadata !3619, metadata !2015) #10, !dbg !3667
  %83 = getelementptr inbounds i64, i64* %75, i64 1
  call void @llvm.dbg.value(metadata %"class.__gnu_cxx::__normal_iterator"* undef, i64 0, metadata !3616, metadata !2015) #10, !dbg !3624
  call void @llvm.dbg.value(metadata %"class.__gnu_cxx::__normal_iterator"* undef, i64 0, metadata !3619, metadata !2015) #10, !dbg !3667
  call void @llvm.dbg.value(metadata %"class.__gnu_cxx::__normal_iterator"* undef, i64 0, metadata !3668, metadata !2015) #10, !dbg !3672
  call void @llvm.dbg.value(metadata %"class.__gnu_cxx::__normal_iterator"* undef, i64 0, metadata !3671, metadata !2015) #10, !dbg !3675
  %84 = icmp eq i64* %83, %16, !dbg !3676
  br i1 %84, label %28, label %74, !dbg !3677, !llvm.loop !3897

; <label>:85:                                     ; preds = %64, %98
  call void @llvm.dbg.value(metadata %"class.benchmark::State"* %0, i64 0, metadata !3683, metadata !2015) #10, !dbg !3687
  %86 = load i8, i8* %31, align 8, !dbg !3679, !tbaa !3688, !range !3698
  %87 = icmp eq i8 %86, 1, !dbg !3679
  br i1 %87, label %89, label %88, !dbg !3699, !prof !3700

; <label>:88:                                     ; preds = %85
  call void @_ZN9benchmark5State16StartKeepRunningEv(%"class.benchmark::State"* nonnull %0) #10, !dbg !3701
  br label %89, !dbg !3703

; <label>:89:                                     ; preds = %88, %85
  %90 = load i64, i64* %32, align 8, !dbg !3704, !tbaa !3705
  %91 = add i64 %90, 1, !dbg !3704
  store i64 %91, i64* %32, align 8, !dbg !3704, !tbaa !3705
  %92 = load i64, i64* %33, align 8, !dbg !3706, !tbaa !3707
  %93 = icmp ult i64 %90, %92, !dbg !3708
  br i1 %93, label %95, label %101, !dbg !3709, !prof !3700

; <label>:94:                                     ; preds = %69
  call void @llvm.dbg.value(metadata %"class.std::vector"* %5, i64 0, metadata !3547, metadata !2015), !dbg !3578
  call void @llvm.dbg.value(metadata %"class.std::vector"* undef, i64 0, metadata !3550, metadata !2015), !dbg !3710
  call void @llvm.dbg.value(metadata %"class.std::vector"* undef, i64 0, metadata !3711, metadata !2015) #10, !dbg !3715
  call void @llvm.dbg.value(metadata %"class.std::vector"* %5, i64 0, metadata !3714, metadata !2015) #10, !dbg !3717
  call void @llvm.dbg.value(metadata %"class.std::vector"* undef, i64 0, metadata !3718, metadata !2015) #10, !dbg !3723
  call void @llvm.dbg.value(metadata i64 %35, i64 0, metadata !3721, metadata !2015) #10, !dbg !3725
  call void @llvm.dbg.value(metadata %"class.std::allocator"* undef, i64 0, metadata !3722, metadata !2015) #10, !dbg !3726
  call void @llvm.dbg.value(metadata %"class.std::vector"* undef, i64 0, metadata !3727, metadata !2015) #10, !dbg !3731
  call void @llvm.dbg.value(metadata i64 %35, i64 0, metadata !3730, metadata !2015) #10, !dbg !3734
  call void @llvm.dbg.value(metadata %"class.std::vector"* undef, i64 0, metadata !2067, metadata !2015) #10, !dbg !3735
  call void @llvm.dbg.value(metadata i64 %35, i64 0, metadata !2064, metadata !2015) #10, !dbg !3737
  call void @llvm.dbg.value(metadata i64 %35, i64 0, metadata !2071, metadata !2015) #10, !dbg !3900
  call void @llvm.dbg.value(metadata i8* null, i64 0, metadata !2076, metadata !2015) #10, !dbg !3902
  call void @_ZSt17__throw_bad_allocv() #9, !dbg !3903
  unreachable, !dbg !3903

; <label>:95:                                     ; preds = %89
  call void @llvm.dbg.value(metadata %"class.std::vector"* %5, i64 0, metadata !3547, metadata !2015), !dbg !3578
  call void @llvm.dbg.value(metadata %"class.std::vector"* undef, i64 0, metadata !3550, metadata !2015), !dbg !3710
  call void @llvm.dbg.value(metadata %"class.std::vector"* undef, i64 0, metadata !3711, metadata !2015) #10, !dbg !3715
  call void @llvm.dbg.value(metadata %"class.std::vector"* %5, i64 0, metadata !3714, metadata !2015) #10, !dbg !3717
  call void @llvm.dbg.value(metadata %"class.std::vector"* undef, i64 0, metadata !3718, metadata !2015) #10, !dbg !3723
  call void @llvm.dbg.value(metadata i64 %35, i64 0, metadata !3721, metadata !2015) #10, !dbg !3725
  call void @llvm.dbg.value(metadata %"class.std::allocator"* undef, i64 0, metadata !3722, metadata !2015) #10, !dbg !3726
  call void @llvm.dbg.value(metadata %"class.std::vector"* undef, i64 0, metadata !3727, metadata !2015) #10, !dbg !3731
  call void @llvm.dbg.value(metadata i64 %35, i64 0, metadata !3730, metadata !2015) #10, !dbg !3734
  call void @llvm.dbg.value(metadata %"class.std::vector"* undef, i64 0, metadata !2067, metadata !2015) #10, !dbg !3735
  call void @llvm.dbg.value(metadata i64 %35, i64 0, metadata !2064, metadata !2015) #10, !dbg !3737
  call void @llvm.dbg.value(metadata i64 %35, i64 0, metadata !2071, metadata !2015) #10, !dbg !3900
  call void @llvm.dbg.value(metadata i8* null, i64 0, metadata !2076, metadata !2015) #10, !dbg !3902
  %96 = call i8* @_Znwm(i64 %34) #10, !dbg !3904
  call void @llvm.dbg.value(metadata i64** %15, i64 0, metadata !3738, metadata !2058) #10, !dbg !3748
  call void @llvm.dbg.declare(metadata %"class.__gnu_cxx::__normal_iterator.21"* undef, metadata !3745, metadata !2015) #10, !dbg !3751
  call void @llvm.dbg.declare(metadata %"class.__gnu_cxx::__normal_iterator.21"* undef, metadata !3738, metadata !2015) #10, !dbg !3748
  call void @llvm.dbg.value(metadata i8* %96, i64 0, metadata !3746, metadata !2015) #10, !dbg !3752
  call void @llvm.dbg.value(metadata i64** %15, i64 0, metadata !3753, metadata !2058) #10, !dbg !3761
  call void @llvm.dbg.declare(metadata %"class.__gnu_cxx::__normal_iterator.21"* undef, metadata !3759, metadata !2015) #10, !dbg !3763
  call void @llvm.dbg.declare(metadata %"class.__gnu_cxx::__normal_iterator.21"* undef, metadata !3753, metadata !2015) #10, !dbg !3761
  call void @llvm.dbg.value(metadata i8* %96, i64 0, metadata !3760, metadata !2015) #10, !dbg !3764
  call void @llvm.dbg.value(metadata i64** %15, i64 0, metadata !3765, metadata !2058) #10, !dbg !3771
  call void @llvm.dbg.declare(metadata %"class.__gnu_cxx::__normal_iterator.21"* undef, metadata !3769, metadata !2015) #10, !dbg !3773
  call void @llvm.dbg.declare(metadata %"class.__gnu_cxx::__normal_iterator.21"* undef, metadata !3765, metadata !2015) #10, !dbg !3771
  call void @llvm.dbg.value(metadata i8* %96, i64 0, metadata !3770, metadata !2015) #10, !dbg !3774
  call void @llvm.dbg.value(metadata i64** %15, i64 0, metadata !3775, metadata !2058) #10, !dbg !3782
  call void @llvm.dbg.declare(metadata %"class.__gnu_cxx::__normal_iterator.21"* undef, metadata !3780, metadata !2015) #10, !dbg !3784
  call void @llvm.dbg.declare(metadata %"class.__gnu_cxx::__normal_iterator.21"* undef, metadata !3775, metadata !2015) #10, !dbg !3782
  call void @llvm.dbg.value(metadata i8* %96, i64 0, metadata !3781, metadata !2015) #10, !dbg !3785
  call void @llvm.dbg.value(metadata i64** %15, i64 0, metadata !3786, metadata !2058) #10, !dbg !3794
  call void @llvm.dbg.declare(metadata %"class.__gnu_cxx::__normal_iterator.21"* undef, metadata !3792, metadata !2015) #10, !dbg !3796
  call void @llvm.dbg.declare(metadata %"class.__gnu_cxx::__normal_iterator.21"* undef, metadata !3786, metadata !2015) #10, !dbg !3794
  call void @llvm.dbg.value(metadata i8* %96, i64 0, metadata !3793, metadata !2015) #10, !dbg !3797
  call void @llvm.dbg.value(metadata i64** %15, i64 0, metadata !3798, metadata !2058) #10, !dbg !3806
  call void @llvm.dbg.value(metadata i8* %96, i64 0, metadata !3804, metadata !2015) #10, !dbg !3808
  call void @llvm.dbg.value(metadata i8 1, i64 0, metadata !3805, metadata !2015) #10, !dbg !3809
  call void @llvm.dbg.value(metadata i64** %15, i64 0, metadata !3810, metadata !2058) #10, !dbg !3820
  call void @llvm.dbg.value(metadata i8* %96, i64 0, metadata !3818, metadata !2015) #10, !dbg !3822
  br i1 %37, label %98, label %97, !dbg !3905

; <label>:97:                                     ; preds = %95
  call void @llvm.memmove.p0i8.p0i8.i64(i8* nonnull %96, i8* %38, i64 %34, i32 8, i1 false) #10, !dbg !3842
  br label %98, !dbg !3842

; <label>:98:                                     ; preds = %97, %95
  call void @llvm.dbg.value(metadata %"class.std::vector"* undef, i64 0, metadata !3550, metadata !2015), !dbg !3710
  call void @llvm.dbg.value(metadata %"class.std::vector"* undef, i64 0, metadata !3550, metadata !2015), !dbg !3710
  call void @qsort(i8* nonnull %96, i64 %35, i64 8, i32 (i8*, i8*)* nonnull @_Z3cmpPKvS0_) #10, !dbg !3823
  call void @llvm.dbg.value(metadata %"class.std::vector"* undef, i64 0, metadata !3550, metadata !2015), !dbg !3710
  call void @llvm.dbg.value(metadata %"class.std::vector"* undef, i64 0, metadata !3824, metadata !2015) #10, !dbg !3827
  call void @llvm.dbg.value(metadata %"class.std::vector"* undef, i64 0, metadata !3829, metadata !2015) #10, !dbg !3832
  call void @llvm.dbg.value(metadata %"class.std::vector"* undef, i64 0, metadata !2193, metadata !2015) #10, !dbg !3835
  call void @llvm.dbg.value(metadata i8* %96, i64 0, metadata !2190, metadata !2015) #10, !dbg !3838
  call void @llvm.dbg.value(metadata i8* %96, i64 0, metadata !2410, metadata !2015) #10, !dbg !3906
  call void @_ZdlPv(i8* nonnull %96) #10, !dbg !3908
  br label %85, !dbg !3687, !llvm.loop !3839

; <label>:99:                                     ; preds = %46
  br label %102, !dbg !3909

; <label>:100:                                    ; preds = %56
  br label %102, !dbg !3909

; <label>:101:                                    ; preds = %89
  br label %102, !dbg !3909

; <label>:102:                                    ; preds = %101, %100, %99, %69
  call void @_ZN9benchmark5State17FinishKeepRunningEv(%"class.benchmark::State"* nonnull %0) #10, !dbg !3909
  call void @llvm.lifetime.end.p0i8(i64 8, i8* nonnull %11) #10, !dbg !3912
  call void @llvm.dbg.value(metadata %"class.std::vector"* %5, i64 0, metadata !3547, metadata !2015), !dbg !3578
  call void @llvm.dbg.value(metadata %"class.std::vector"* %5, i64 0, metadata !3824, metadata !2015) #10, !dbg !3913
  call void @llvm.dbg.value(metadata %"class.std::vector"* %5, i64 0, metadata !3829, metadata !2015) #10, !dbg !3915
  call void @llvm.dbg.value(metadata %"class.std::vector"* %5, i64 0, metadata !2193, metadata !2015) #10, !dbg !3917
  call void @llvm.dbg.value(metadata i64* %14, i64 0, metadata !2190, metadata !2015) #10, !dbg !3919
  %103 = icmp eq i64* %14, null, !dbg !3920
  br i1 %103, label %106, label %104, !dbg !3921

; <label>:104:                                    ; preds = %102
  call void @llvm.dbg.value(metadata i64* %14, i64 0, metadata !2410, metadata !2015) #10, !dbg !3922
  %105 = bitcast i64* %14 to i8*, !dbg !3924
  call void @_ZdlPv(i8* %105) #10, !dbg !3925
  br label %106, !dbg !3926

; <label>:106:                                    ; preds = %102, %104
  call void @llvm.lifetime.end.p0i8(i64 24, i8* nonnull %7) #10, !dbg !3912
  ret void, !dbg !3912
}

declare void @qsort(i8*, i64, i64, i32 (i8*, i8*)* nocapture) local_unnamed_addr #0

; Function Attrs: nounwind uwtable
define void @_Z11BM_std_sortRN9benchmark5StateE(%"class.benchmark::State"* dereferenceable(144)) local_unnamed_addr #1 !dbg !3927 {
  %2 = alloca <2 x i64>, align 16
  %3 = bitcast <2 x i64>* %2 to %"class.std::uniform_int_distribution"*
  %4 = alloca %"struct.std::uniform_int_distribution<unsigned long>::param_type", align 8
  %5 = alloca %"class.std::vector", align 8
  %6 = alloca %"class.std::linear_congruential_engine", align 8
  tail call void @llvm.dbg.value(metadata %"class.benchmark::State"* %0, i64 0, metadata !3929, metadata !2015), !dbg !3934
  %7 = bitcast %"class.std::vector"* %5 to i8*, !dbg !3935
  call void @llvm.lifetime.start.p0i8(i64 24, i8* nonnull %7) #10, !dbg !3935
  tail call void @llvm.dbg.value(metadata %"class.benchmark::State"* %0, i64 0, metadata !3554, metadata !2015), !dbg !3936
  tail call void @llvm.dbg.value(metadata i64 0, i64 0, metadata !3557, metadata !2015), !dbg !3938
  tail call void @llvm.dbg.value(metadata %"class.benchmark::State"* %0, i64 0, metadata !3562, metadata !3567), !dbg !3939
  tail call void @llvm.dbg.value(metadata i64 0, i64 0, metadata !3565, metadata !2015), !dbg !3941
  %8 = getelementptr inbounds %"class.benchmark::State", %"class.benchmark::State"* %0, i64 0, i32 3, i32 0, i32 0, i32 0, !dbg !3942
  %9 = load i32*, i32** %8, align 8, !dbg !3942, !tbaa !3572
  %10 = load i32, i32* %9, align 4, !dbg !3943, !tbaa !3576
  tail call void @llvm.dbg.value(metadata %"class.std::vector"* %5, i64 0, metadata !3930, metadata !2015), !dbg !3944
  call void @_Z5rangei(%"class.std::vector"* nonnull sret %5, i32 %10), !dbg !3945
  %11 = bitcast %"class.std::linear_congruential_engine"* %6 to i8*, !dbg !3946
  call void @llvm.lifetime.start.p0i8(i64 8, i8* nonnull %11) #10, !dbg !3946
  tail call void @llvm.dbg.value(metadata %"class.std::linear_congruential_engine"* %6, i64 0, metadata !3931, metadata !2015), !dbg !3947
  %12 = getelementptr inbounds %"class.std::linear_congruential_engine", %"class.std::linear_congruential_engine"* %6, i64 0, i32 0
  store i64 200, i64* %12, align 8, !tbaa !3582
  tail call void @llvm.dbg.value(metadata %"class.std::vector"* %5, i64 0, metadata !3930, metadata !2015), !dbg !3944
  tail call void @llvm.dbg.value(metadata %"class.std::vector"* %5, i64 0, metadata !3584, metadata !2015), !dbg !3948
  tail call void @llvm.dbg.value(metadata %"class.__gnu_cxx::__normal_iterator"* undef, i64 0, metadata !3589, metadata !2015), !dbg !3950
  tail call void @llvm.dbg.value(metadata %"class.std::vector"* %5, i64 0, metadata !3592, metadata !2015), !dbg !3952
  %13 = getelementptr inbounds %"class.std::vector", %"class.std::vector"* %5, i64 0, i32 0, i32 0, i32 0, !dbg !3953
  %14 = load i64*, i64** %13, align 8, !dbg !3953, !tbaa !2418
  tail call void @llvm.dbg.value(metadata %"class.std::vector"* %5, i64 0, metadata !3930, metadata !2015), !dbg !3944
  tail call void @llvm.dbg.value(metadata %"class.std::vector"* %5, i64 0, metadata !3598, metadata !2015), !dbg !3954
  %15 = getelementptr inbounds %"class.std::vector", %"class.std::vector"* %5, i64 0, i32 0, i32 0, i32 1, !dbg !3956
  tail call void @llvm.dbg.value(metadata %"class.__gnu_cxx::__normal_iterator"* undef, i64 0, metadata !3589, metadata !2015), !dbg !3957
  tail call void @llvm.dbg.value(metadata i64** %15, i64 0, metadata !3592, metadata !2015), !dbg !3959
  %16 = load i64*, i64** %15, align 8, !dbg !3960, !tbaa !2418
  tail call void @llvm.dbg.value(metadata %"class.std::linear_congruential_engine"* %6, i64 0, metadata !3931, metadata !2015), !dbg !3947
  %17 = ptrtoint i64* %14 to i64
  tail call void @llvm.dbg.value(metadata %"class.std::linear_congruential_engine"* %6, i64 0, metadata !3608, metadata !2015) #10, !dbg !3961
  tail call void @llvm.dbg.value(metadata %"class.__gnu_cxx::__normal_iterator"* undef, i64 0, metadata !3615, metadata !2015) #10, !dbg !3963
  tail call void @llvm.dbg.value(metadata %"class.__gnu_cxx::__normal_iterator"* undef, i64 0, metadata !3616, metadata !2015) #10, !dbg !3964
  tail call void @llvm.dbg.value(metadata %"class.__gnu_cxx::__normal_iterator"* undef, i64 0, metadata !3625, metadata !2015) #10, !dbg !3965
  tail call void @llvm.dbg.value(metadata %"class.__gnu_cxx::__normal_iterator"* undef, i64 0, metadata !3631, metadata !2015) #10, !dbg !3967
  %18 = icmp eq i64* %14, %16, !dbg !3968
  %19 = ptrtoint i64* %16 to i64, !dbg !3969
  br i1 %18, label %30, label %20, !dbg !3969

; <label>:20:                                     ; preds = %1
  %21 = bitcast <2 x i64>* %2 to i8*, !dbg !3970
  call void @llvm.lifetime.start.p0i8(i64 16, i8* nonnull %21) #10, !dbg !3970
  tail call void @llvm.dbg.value(metadata %"class.std::uniform_int_distribution"* %3, i64 0, metadata !3617, metadata !2015) #10, !dbg !3971
  tail call void @llvm.dbg.value(metadata %"class.std::uniform_int_distribution"* %3, i64 0, metadata !3640, metadata !2015) #10, !dbg !3972
  tail call void @llvm.dbg.value(metadata i64 0, i64 0, metadata !3643, metadata !2015) #10, !dbg !3974
  tail call void @llvm.dbg.value(metadata i64 -1, i64 0, metadata !3644, metadata !2015) #10, !dbg !3975
  tail call void @llvm.dbg.value(metadata %"class.std::uniform_int_distribution"* %3, i64 0, metadata !3649, metadata !2015) #10, !dbg !3976
  tail call void @llvm.dbg.value(metadata i64 0, i64 0, metadata !3652, metadata !2015) #10, !dbg !3978
  tail call void @llvm.dbg.value(metadata i64 -1, i64 0, metadata !3653, metadata !2015) #10, !dbg !3979
  store <2 x i64> <i64 0, i64 -1>, <2 x i64>* %2, align 16, !dbg !3980, !tbaa !2276
  tail call void @llvm.dbg.value(metadata %"class.__gnu_cxx::__normal_iterator"* undef, i64 0, metadata !3615, metadata !2015) #10, !dbg !3963
  tail call void @llvm.dbg.value(metadata %"class.__gnu_cxx::__normal_iterator"* undef, i64 0, metadata !3660, metadata !2015) #10, !dbg !3981
  %22 = getelementptr inbounds i64, i64* %14, i64 1
  tail call void @llvm.dbg.value(metadata %"class.__gnu_cxx::__normal_iterator"* undef, i64 0, metadata !3616, metadata !2015) #10, !dbg !3964
  tail call void @llvm.dbg.value(metadata %"class.__gnu_cxx::__normal_iterator"* undef, i64 0, metadata !3619, metadata !2015) #10, !dbg !3983
  tail call void @llvm.dbg.value(metadata %"class.__gnu_cxx::__normal_iterator"* undef, i64 0, metadata !3668, metadata !2015) #10, !dbg !3984
  tail call void @llvm.dbg.value(metadata %"class.__gnu_cxx::__normal_iterator"* undef, i64 0, metadata !3671, metadata !2015) #10, !dbg !3986
  %23 = icmp eq i64* %22, %16, !dbg !3987
  br i1 %23, label %29, label %24, !dbg !3988

; <label>:24:                                     ; preds = %20
  %25 = bitcast %"struct.std::uniform_int_distribution<unsigned long>::param_type"* %4 to i8*
  %26 = getelementptr inbounds %"struct.std::uniform_int_distribution<unsigned long>::param_type", %"struct.std::uniform_int_distribution<unsigned long>::param_type"* %4, i64 0, i32 0
  %27 = getelementptr inbounds %"struct.std::uniform_int_distribution<unsigned long>::param_type", %"struct.std::uniform_int_distribution<unsigned long>::param_type"* %4, i64 0, i32 1
  br label %63, !dbg !3988

; <label>:28:                                     ; preds = %63
  br label %29, !dbg !3989

; <label>:29:                                     ; preds = %28, %20
  call void @llvm.lifetime.end.p0i8(i64 16, i8* nonnull %21) #10, !dbg !3989
  br label %30, !dbg !3989

; <label>:30:                                     ; preds = %1, %29
  %31 = getelementptr inbounds %"class.benchmark::State", %"class.benchmark::State"* %0, i64 0, i32 0
  %32 = getelementptr inbounds %"class.benchmark::State", %"class.benchmark::State"* %0, i64 0, i32 2
  %33 = getelementptr inbounds %"class.benchmark::State", %"class.benchmark::State"* %0, i64 0, i32 11
  %34 = sub i64 %19, %17
  %35 = ashr exact i64 %34, 3
  %36 = icmp eq i64 %35, 0
  %37 = call i64 @llvm.ctlz.i64(i64 %35, i1 true) #10, !dbg !3990
  %38 = shl nuw nsw i64 %37, 1
  %39 = xor i64 %38, 126
  %40 = bitcast i64* %14 to i8*
  br i1 %36, label %41, label %51, !dbg !4002

; <label>:41:                                     ; preds = %30
  br label %42, !dbg !4002

; <label>:42:                                     ; preds = %41, %46
  call void @llvm.dbg.value(metadata %"class.benchmark::State"* %0, i64 0, metadata !3683, metadata !2015) #10, !dbg !4004
  %43 = load i8, i8* %31, align 8, !dbg !4002, !tbaa !3688, !range !3698
  %44 = icmp eq i8 %43, 1, !dbg !4002
  br i1 %44, label %46, label %45, !dbg !4005, !prof !3700

; <label>:45:                                     ; preds = %42
  call void @_ZN9benchmark5State16StartKeepRunningEv(%"class.benchmark::State"* nonnull %0) #10, !dbg !4006
  br label %46, !dbg !4007

; <label>:46:                                     ; preds = %45, %42
  %47 = load i64, i64* %32, align 8, !dbg !4008, !tbaa !3705
  %48 = add i64 %47, 1, !dbg !4008
  store i64 %48, i64* %32, align 8, !dbg !4008, !tbaa !3705
  %49 = load i64, i64* %33, align 8, !dbg !4009, !tbaa !3707
  %50 = icmp ult i64 %47, %49, !dbg !4010
  br i1 %50, label %42, label %88, !dbg !4011, !prof !3700, !llvm.loop !4012

; <label>:51:                                     ; preds = %30
  %52 = icmp ugt i64 %35, 2305843009213693951
  br i1 %52, label %54, label %53, !dbg !4002

; <label>:53:                                     ; preds = %51
  br label %74, !dbg !4002

; <label>:54:                                     ; preds = %51
  call void @llvm.dbg.value(metadata %"class.benchmark::State"* %0, i64 0, metadata !3683, metadata !2015) #10, !dbg !4004
  %55 = load i8, i8* %31, align 8, !dbg !4002, !tbaa !3688, !range !3698
  %56 = icmp eq i8 %55, 1, !dbg !4002
  br i1 %56, label %58, label %57, !dbg !4005, !prof !3700

; <label>:57:                                     ; preds = %54
  call void @_ZN9benchmark5State16StartKeepRunningEv(%"class.benchmark::State"* nonnull %0) #10, !dbg !4006
  br label %58, !dbg !4007

; <label>:58:                                     ; preds = %57, %54
  %59 = load i64, i64* %32, align 8, !dbg !4008, !tbaa !3705
  %60 = add i64 %59, 1, !dbg !4008
  store i64 %60, i64* %32, align 8, !dbg !4008, !tbaa !3705
  %61 = load i64, i64* %33, align 8, !dbg !4009, !tbaa !3707
  %62 = icmp ult i64 %59, %61, !dbg !4010
  br i1 %62, label %83, label %90, !dbg !4011, !prof !3700

; <label>:63:                                     ; preds = %63, %24
  %64 = phi i64* [ %22, %24 ], [ %72, %63 ]
  %65 = ptrtoint i64* %64 to i64
  call void @llvm.lifetime.start.p0i8(i64 16, i8* nonnull %25) #10, !dbg !4015
  call void @llvm.dbg.value(metadata %"class.__gnu_cxx::__normal_iterator"* undef, i64 0, metadata !3615, metadata !2015) #10, !dbg !3963
  call void @llvm.dbg.value(metadata %"class.__gnu_cxx::__normal_iterator"* undef, i64 0, metadata !3619, metadata !2015) #10, !dbg !3983
  call void @llvm.dbg.value(metadata %"class.__gnu_cxx::__normal_iterator"* undef, i64 0, metadata !3845, metadata !2015) #10, !dbg !4016
  call void @llvm.dbg.value(metadata %"class.__gnu_cxx::__normal_iterator"* undef, i64 0, metadata !3850, metadata !2015) #10, !dbg !4018
  %66 = sub i64 %65, %17, !dbg !4019
  %67 = ashr exact i64 %66, 3, !dbg !4019
  call void @llvm.dbg.value(metadata %"struct.std::uniform_int_distribution<unsigned long>::param_type"* %4, i64 0, metadata !3649, metadata !2015) #10, !dbg !4020
  call void @llvm.dbg.value(metadata i64 0, i64 0, metadata !3652, metadata !2015) #10, !dbg !4022
  call void @llvm.dbg.value(metadata i64 %67, i64 0, metadata !3653, metadata !2015) #10, !dbg !4023
  store i64 0, i64* %26, align 8, !dbg !4024, !tbaa !3860
  store i64 %67, i64* %27, align 8, !dbg !4025, !tbaa !3863
  call void @llvm.dbg.value(metadata %"class.std::uniform_int_distribution"* %3, i64 0, metadata !3617, metadata !2015) #10, !dbg !3971
  %68 = call i64 @_ZNSt24uniform_int_distributionImEclISt26linear_congruential_engineImLm48271ELm0ELm2147483647EEEEmRT_RKNS0_10param_typeE(%"class.std::uniform_int_distribution"* nonnull %3, %"class.std::linear_congruential_engine"* nonnull dereferenceable(8) %6, %"struct.std::uniform_int_distribution<unsigned long>::param_type"* nonnull dereferenceable(16) %4) #10, !dbg !4026
  call void @llvm.dbg.value(metadata %"class.__gnu_cxx::__normal_iterator"* undef, i64 0, metadata !3615, metadata !2015) #10, !dbg !3963
  call void @llvm.dbg.value(metadata %"class.__gnu_cxx::__normal_iterator"* undef, i64 0, metadata !3660, metadata !2015) #10, !dbg !4027
  %69 = getelementptr inbounds i64, i64* %14, i64 %68, !dbg !4029
  call void @llvm.dbg.value(metadata %"class.__gnu_cxx::__normal_iterator"* undef, i64 0, metadata !3868, metadata !2015) #10, !dbg !4030
  call void @llvm.dbg.value(metadata %"class.__gnu_cxx::__normal_iterator"* undef, i64 0, metadata !3876, metadata !2015) #10, !dbg !4032
  call void @llvm.dbg.value(metadata i64* %64, i64 0, metadata !3880, metadata !2015) #10, !dbg !4033
  call void @llvm.dbg.value(metadata i64* %69, i64 0, metadata !3886, metadata !2015) #10, !dbg !4035
  %70 = load i64, i64* %64, align 8, !dbg !4036, !tbaa !2276
  call void @llvm.dbg.value(metadata i64 %70, i64 0, metadata !3887, metadata !2015) #10, !dbg !4037
  %71 = load i64, i64* %69, align 8, !dbg !4038, !tbaa !2276
  store i64 %71, i64* %64, align 8, !dbg !4039, !tbaa !2276
  store i64 %70, i64* %69, align 8, !dbg !4040, !tbaa !2276
  call void @llvm.lifetime.end.p0i8(i64 16, i8* nonnull %25) #10, !dbg !4041
  call void @llvm.dbg.value(metadata %"class.__gnu_cxx::__normal_iterator"* undef, i64 0, metadata !3619, metadata !2015) #10, !dbg !3983
  %72 = getelementptr inbounds i64, i64* %64, i64 1
  call void @llvm.dbg.value(metadata %"class.__gnu_cxx::__normal_iterator"* undef, i64 0, metadata !3616, metadata !2015) #10, !dbg !3964
  call void @llvm.dbg.value(metadata %"class.__gnu_cxx::__normal_iterator"* undef, i64 0, metadata !3619, metadata !2015) #10, !dbg !3983
  call void @llvm.dbg.value(metadata %"class.__gnu_cxx::__normal_iterator"* undef, i64 0, metadata !3668, metadata !2015) #10, !dbg !3984
  call void @llvm.dbg.value(metadata %"class.__gnu_cxx::__normal_iterator"* undef, i64 0, metadata !3671, metadata !2015) #10, !dbg !3986
  %73 = icmp eq i64* %72, %16, !dbg !3987
  br i1 %73, label %28, label %63, !dbg !3988, !llvm.loop !3897

; <label>:74:                                     ; preds = %53, %84
  call void @llvm.dbg.value(metadata %"class.benchmark::State"* %0, i64 0, metadata !3683, metadata !2015) #10, !dbg !4004
  %75 = load i8, i8* %31, align 8, !dbg !4002, !tbaa !3688, !range !3698
  %76 = icmp eq i8 %75, 1, !dbg !4002
  br i1 %76, label %78, label %77, !dbg !4005, !prof !3700

; <label>:77:                                     ; preds = %74
  call void @_ZN9benchmark5State16StartKeepRunningEv(%"class.benchmark::State"* nonnull %0) #10, !dbg !4006
  br label %78, !dbg !4007

; <label>:78:                                     ; preds = %77, %74
  %79 = load i64, i64* %32, align 8, !dbg !4008, !tbaa !3705
  %80 = add i64 %79, 1, !dbg !4008
  store i64 %80, i64* %32, align 8, !dbg !4008, !tbaa !3705
  %81 = load i64, i64* %33, align 8, !dbg !4009, !tbaa !3707
  %82 = icmp ult i64 %79, %81, !dbg !4010
  br i1 %82, label %84, label %89, !dbg !4011, !prof !3700

; <label>:83:                                     ; preds = %58
  call void @llvm.dbg.value(metadata %"class.std::vector"* %5, i64 0, metadata !3930, metadata !2015), !dbg !3944
  call void @llvm.dbg.value(metadata %"class.std::vector"* undef, i64 0, metadata !3932, metadata !2015), !dbg !4042
  call void @llvm.dbg.value(metadata %"class.std::vector"* undef, i64 0, metadata !3711, metadata !2015) #10, !dbg !4043
  call void @llvm.dbg.value(metadata %"class.std::vector"* %5, i64 0, metadata !3714, metadata !2015) #10, !dbg !4045
  call void @llvm.dbg.value(metadata %"class.std::vector"* undef, i64 0, metadata !3718, metadata !2015) #10, !dbg !4046
  call void @llvm.dbg.value(metadata i64 %35, i64 0, metadata !3721, metadata !2015) #10, !dbg !4048
  call void @llvm.dbg.value(metadata %"class.std::allocator"* undef, i64 0, metadata !3722, metadata !2015) #10, !dbg !4049
  call void @llvm.dbg.value(metadata %"class.std::vector"* undef, i64 0, metadata !3727, metadata !2015) #10, !dbg !4050
  call void @llvm.dbg.value(metadata i64 %35, i64 0, metadata !3730, metadata !2015) #10, !dbg !4052
  call void @llvm.dbg.value(metadata %"class.std::vector"* undef, i64 0, metadata !2067, metadata !2015) #10, !dbg !4053
  call void @llvm.dbg.value(metadata i64 %35, i64 0, metadata !2064, metadata !2015) #10, !dbg !4055
  call void @llvm.dbg.value(metadata i64 %35, i64 0, metadata !2071, metadata !2015) #10, !dbg !4056
  call void @llvm.dbg.value(metadata i8* null, i64 0, metadata !2076, metadata !2015) #10, !dbg !4058
  call void @_ZSt17__throw_bad_allocv() #9, !dbg !4059
  unreachable, !dbg !4059

; <label>:84:                                     ; preds = %78
  call void @llvm.dbg.value(metadata %"class.std::vector"* %5, i64 0, metadata !3930, metadata !2015), !dbg !3944
  call void @llvm.dbg.value(metadata %"class.std::vector"* undef, i64 0, metadata !3932, metadata !2015), !dbg !4042
  call void @llvm.dbg.value(metadata %"class.std::vector"* undef, i64 0, metadata !3711, metadata !2015) #10, !dbg !4043
  call void @llvm.dbg.value(metadata %"class.std::vector"* %5, i64 0, metadata !3714, metadata !2015) #10, !dbg !4045
  call void @llvm.dbg.value(metadata %"class.std::vector"* undef, i64 0, metadata !3718, metadata !2015) #10, !dbg !4046
  call void @llvm.dbg.value(metadata i64 %35, i64 0, metadata !3721, metadata !2015) #10, !dbg !4048
  call void @llvm.dbg.value(metadata %"class.std::allocator"* undef, i64 0, metadata !3722, metadata !2015) #10, !dbg !4049
  call void @llvm.dbg.value(metadata %"class.std::vector"* undef, i64 0, metadata !3727, metadata !2015) #10, !dbg !4050
  call void @llvm.dbg.value(metadata i64 %35, i64 0, metadata !3730, metadata !2015) #10, !dbg !4052
  call void @llvm.dbg.value(metadata %"class.std::vector"* undef, i64 0, metadata !2067, metadata !2015) #10, !dbg !4053
  call void @llvm.dbg.value(metadata i64 %35, i64 0, metadata !2064, metadata !2015) #10, !dbg !4055
  call void @llvm.dbg.value(metadata i64 %35, i64 0, metadata !2071, metadata !2015) #10, !dbg !4056
  call void @llvm.dbg.value(metadata i8* null, i64 0, metadata !2076, metadata !2015) #10, !dbg !4058
  %85 = call i8* @_Znwm(i64 %34) #10, !dbg !4060
  %86 = bitcast i8* %85 to i64*, !dbg !4061
  call void @llvm.dbg.value(metadata i64** %15, i64 0, metadata !3738, metadata !2058) #10, !dbg !4062
  call void @llvm.dbg.declare(metadata %"class.__gnu_cxx::__normal_iterator.21"* undef, metadata !3745, metadata !2015) #10, !dbg !4064
  call void @llvm.dbg.declare(metadata %"class.__gnu_cxx::__normal_iterator.21"* undef, metadata !3738, metadata !2015) #10, !dbg !4062
  call void @llvm.dbg.value(metadata i64* %86, i64 0, metadata !3746, metadata !2015) #10, !dbg !4065
  call void @llvm.dbg.value(metadata i64** %15, i64 0, metadata !3753, metadata !2058) #10, !dbg !4066
  call void @llvm.dbg.declare(metadata %"class.__gnu_cxx::__normal_iterator.21"* undef, metadata !3759, metadata !2015) #10, !dbg !4068
  call void @llvm.dbg.declare(metadata %"class.__gnu_cxx::__normal_iterator.21"* undef, metadata !3753, metadata !2015) #10, !dbg !4066
  call void @llvm.dbg.value(metadata i64* %86, i64 0, metadata !3760, metadata !2015) #10, !dbg !4069
  call void @llvm.dbg.value(metadata i64** %15, i64 0, metadata !3765, metadata !2058) #10, !dbg !4070
  call void @llvm.dbg.declare(metadata %"class.__gnu_cxx::__normal_iterator.21"* undef, metadata !3769, metadata !2015) #10, !dbg !4072
  call void @llvm.dbg.declare(metadata %"class.__gnu_cxx::__normal_iterator.21"* undef, metadata !3765, metadata !2015) #10, !dbg !4070
  call void @llvm.dbg.value(metadata i64* %86, i64 0, metadata !3770, metadata !2015) #10, !dbg !4073
  call void @llvm.dbg.value(metadata i64** %15, i64 0, metadata !3775, metadata !2058) #10, !dbg !4074
  call void @llvm.dbg.declare(metadata %"class.__gnu_cxx::__normal_iterator.21"* undef, metadata !3780, metadata !2015) #10, !dbg !4076
  call void @llvm.dbg.declare(metadata %"class.__gnu_cxx::__normal_iterator.21"* undef, metadata !3775, metadata !2015) #10, !dbg !4074
  call void @llvm.dbg.value(metadata i64* %86, i64 0, metadata !3781, metadata !2015) #10, !dbg !4077
  call void @llvm.dbg.value(metadata i64** %15, i64 0, metadata !3786, metadata !2058) #10, !dbg !4078
  call void @llvm.dbg.declare(metadata %"class.__gnu_cxx::__normal_iterator.21"* undef, metadata !3792, metadata !2015) #10, !dbg !4080
  call void @llvm.dbg.declare(metadata %"class.__gnu_cxx::__normal_iterator.21"* undef, metadata !3786, metadata !2015) #10, !dbg !4078
  call void @llvm.dbg.value(metadata i64* %86, i64 0, metadata !3793, metadata !2015) #10, !dbg !4081
  call void @llvm.dbg.value(metadata i64** %15, i64 0, metadata !3798, metadata !2058) #10, !dbg !4082
  call void @llvm.dbg.value(metadata i64* %86, i64 0, metadata !3804, metadata !2015) #10, !dbg !4084
  call void @llvm.dbg.value(metadata i8 1, i64 0, metadata !3805, metadata !2015) #10, !dbg !4085
  call void @llvm.dbg.value(metadata i64** %15, i64 0, metadata !3810, metadata !2058) #10, !dbg !4086
  call void @llvm.dbg.value(metadata i64* %86, i64 0, metadata !3818, metadata !2015) #10, !dbg !4088
  call void @llvm.dbg.value(metadata i64 %35, i64 0, metadata !3819, metadata !2015) #10, !dbg !4089
  call void @llvm.memmove.p0i8.p0i8.i64(i8* nonnull %85, i8* %40, i64 %34, i32 8, i1 false) #10, !dbg !4090
  %87 = getelementptr inbounds i64, i64* %86, i64 %35, !dbg !4091
  call void @llvm.dbg.value(metadata %"class.std::vector"* undef, i64 0, metadata !3932, metadata !2015), !dbg !4042
  tail call void @llvm.dbg.value(metadata %"class.std::vector"* undef, i64 0, metadata !3584, metadata !2015), !dbg !4092
  tail call void @llvm.dbg.value(metadata %"class.__gnu_cxx::__normal_iterator"* undef, i64 0, metadata !3589, metadata !2015), !dbg !4094
  tail call void @llvm.dbg.value(metadata %"class.std::vector"* undef, i64 0, metadata !3592, metadata !2015), !dbg !4096
  call void @llvm.dbg.value(metadata %"class.std::vector"* undef, i64 0, metadata !3932, metadata !2015), !dbg !4042
  tail call void @llvm.dbg.value(metadata %"class.std::vector"* undef, i64 0, metadata !3598, metadata !2015), !dbg !4097
  tail call void @llvm.dbg.value(metadata %"class.__gnu_cxx::__normal_iterator"* undef, i64 0, metadata !3589, metadata !2015), !dbg !4099
  tail call void @llvm.dbg.value(metadata i64** undef, i64 0, metadata !3592, metadata !2015), !dbg !4101
  call void @llvm.dbg.value(metadata %"class.__gnu_cxx::__normal_iterator"* undef, i64 0, metadata !3999, metadata !2015) #10, !dbg !4102
  call void @llvm.dbg.value(metadata %"class.__gnu_cxx::__normal_iterator"* undef, i64 0, metadata !4000, metadata !2015) #10, !dbg !4103
  call void @llvm.dbg.value(metadata %"class.__gnu_cxx::__normal_iterator"* undef, i64 0, metadata !3668, metadata !2015) #10, !dbg !4104
  call void @llvm.dbg.value(metadata %"class.__gnu_cxx::__normal_iterator"* undef, i64 0, metadata !3671, metadata !2015) #10, !dbg !4106
  call void @llvm.dbg.value(metadata %"class.__gnu_cxx::__normal_iterator"* undef, i64 0, metadata !3999, metadata !2015) #10, !dbg !4102
  call void @llvm.dbg.value(metadata %"class.__gnu_cxx::__normal_iterator"* undef, i64 0, metadata !4000, metadata !2015) #10, !dbg !4103
  call void @llvm.dbg.value(metadata %"class.__gnu_cxx::__normal_iterator"* undef, i64 0, metadata !3845, metadata !2015) #10, !dbg !4107
  call void @llvm.dbg.value(metadata %"class.__gnu_cxx::__normal_iterator"* undef, i64 0, metadata !3850, metadata !2015) #10, !dbg !4109
  call void @llvm.dbg.value(metadata i64 %35, i64 0, metadata !3993, metadata !2015) #10, !dbg !4110
  call void @_ZSt16__introsort_loopIN9__gnu_cxx17__normal_iteratorIPlSt6vectorIlSaIlEEEElEvT_S7_T0_(i64* nonnull %86, i64* %87, i64 %39) #10, !dbg !4111
  call void @_ZSt22__final_insertion_sortIN9__gnu_cxx17__normal_iteratorIPlSt6vectorIlSaIlEEEEEvT_S7_(i64* nonnull %86, i64* %87) #10, !dbg !4112
  call void @llvm.dbg.value(metadata %"class.std::vector"* undef, i64 0, metadata !3932, metadata !2015), !dbg !4042
  call void @llvm.dbg.value(metadata %"class.std::vector"* undef, i64 0, metadata !3824, metadata !2015) #10, !dbg !4113
  call void @llvm.dbg.value(metadata %"class.std::vector"* undef, i64 0, metadata !3829, metadata !2015) #10, !dbg !4115
  call void @llvm.dbg.value(metadata %"class.std::vector"* undef, i64 0, metadata !2193, metadata !2015) #10, !dbg !4117
  call void @llvm.dbg.value(metadata i64* %86, i64 0, metadata !2190, metadata !2015) #10, !dbg !4119
  call void @llvm.dbg.value(metadata i64* %86, i64 0, metadata !2410, metadata !2015) #10, !dbg !4120
  call void @_ZdlPv(i8* nonnull %85) #10, !dbg !4122
  br label %74, !dbg !4004, !llvm.loop !4012

; <label>:88:                                     ; preds = %46
  br label %90, !dbg !4123

; <label>:89:                                     ; preds = %78
  br label %90, !dbg !4123

; <label>:90:                                     ; preds = %89, %88, %58
  call void @_ZN9benchmark5State17FinishKeepRunningEv(%"class.benchmark::State"* nonnull %0) #10, !dbg !4123
  call void @llvm.lifetime.end.p0i8(i64 8, i8* nonnull %11) #10, !dbg !4124
  call void @llvm.dbg.value(metadata %"class.std::vector"* %5, i64 0, metadata !3930, metadata !2015), !dbg !3944
  call void @llvm.dbg.value(metadata %"class.std::vector"* %5, i64 0, metadata !3824, metadata !2015) #10, !dbg !4125
  call void @llvm.dbg.value(metadata %"class.std::vector"* %5, i64 0, metadata !3829, metadata !2015) #10, !dbg !4127
  call void @llvm.dbg.value(metadata %"class.std::vector"* %5, i64 0, metadata !2193, metadata !2015) #10, !dbg !4129
  call void @llvm.dbg.value(metadata i64* %14, i64 0, metadata !2190, metadata !2015) #10, !dbg !4131
  %91 = icmp eq i64* %14, null, !dbg !4132
  br i1 %91, label %94, label %92, !dbg !4133

; <label>:92:                                     ; preds = %90
  call void @llvm.dbg.value(metadata i64* %14, i64 0, metadata !2410, metadata !2015) #10, !dbg !4134
  %93 = bitcast i64* %14 to i8*, !dbg !4136
  call void @_ZdlPv(i8* %93) #10, !dbg !4137
  br label %94, !dbg !4138

; <label>:94:                                     ; preds = %90, %92
  call void @llvm.lifetime.end.p0i8(i64 24, i8* nonnull %7) #10, !dbg !4124
  ret void, !dbg !4124
}

; Function Attrs: nounwind uwtable
define i32 @_Z9partitionRSt6vectorIlSaIlEEii(%"class.std::vector"* nocapture readonly dereferenceable(24), i32, i32) local_unnamed_addr #1 !dbg !4139 {
  tail call void @llvm.dbg.value(metadata %"class.std::vector"* %0, i64 0, metadata !4144, metadata !2015), !dbg !4150
  tail call void @llvm.dbg.value(metadata i32 %1, i64 0, metadata !4145, metadata !2015), !dbg !4151
  tail call void @llvm.dbg.value(metadata i32 %2, i64 0, metadata !4146, metadata !2015), !dbg !4152
  %4 = sext i32 %2 to i64, !dbg !4153
  tail call void @llvm.dbg.value(metadata %"class.std::vector"* %0, i64 0, metadata !4154, metadata !2015), !dbg !4158
  tail call void @llvm.dbg.value(metadata i64 %4, i64 0, metadata !4157, metadata !2015), !dbg !4160
  %5 = getelementptr inbounds %"class.std::vector", %"class.std::vector"* %0, i64 0, i32 0, i32 0, i32 0, !dbg !4161
  %6 = add nsw i32 %1, -1, !dbg !4162
  tail call void @llvm.dbg.value(metadata i32 %6, i64 0, metadata !4148, metadata !2015), !dbg !4163
  tail call void @llvm.dbg.value(metadata i32 %1, i64 0, metadata !4149, metadata !2015), !dbg !4164
  tail call void @llvm.dbg.value(metadata i32 %1, i64 0, metadata !4149, metadata !2015), !dbg !4164
  tail call void @llvm.dbg.value(metadata i32 %6, i64 0, metadata !4148, metadata !2015), !dbg !4163
  %7 = icmp slt i32 %1, %2, !dbg !4165
  %8 = load i64*, i64** %5, align 8, !dbg !4168, !tbaa !2198
  %9 = getelementptr inbounds i64, i64* %8, i64 %4, !dbg !4172
  br i1 %7, label %10, label %41, !dbg !4173

; <label>:10:                                     ; preds = %3
  %11 = load i64, i64* %9, align 8, !dbg !4174, !tbaa !2276
  %12 = shl i64 %11, 32
  %13 = ashr exact i64 %12, 32
  %14 = sext i32 %1 to i64, !dbg !4173
  tail call void @llvm.dbg.value(metadata i32 %6, i64 0, metadata !4148, metadata !2015), !dbg !4163
  tail call void @llvm.dbg.value(metadata i32 undef, i64 0, metadata !4149, metadata !2015), !dbg !4164
  tail call void @llvm.dbg.value(metadata %"class.std::vector"* %0, i64 0, metadata !4154, metadata !2015), !dbg !4175
  tail call void @llvm.dbg.value(metadata i64 %14, i64 0, metadata !4157, metadata !2015), !dbg !4176
  %15 = getelementptr inbounds i64, i64* %8, i64 %14, !dbg !4177
  %16 = load i64, i64* %15, align 8, !dbg !4178, !tbaa !2276
  %17 = icmp sgt i64 %16, %13, !dbg !4179
  tail call void @llvm.dbg.value(metadata i32 %1, i64 0, metadata !4148, metadata !2015), !dbg !4163
  %18 = select i1 %17, i32 %6, i32 %1, !dbg !4180
  tail call void @llvm.dbg.value(metadata i32 %18, i64 0, metadata !4148, metadata !2015), !dbg !4163
  %19 = add nsw i64 %14, 1, !dbg !4181
  tail call void @llvm.dbg.value(metadata i32 %18, i64 0, metadata !4148, metadata !2015), !dbg !4163
  %20 = icmp eq i64 %19, %4, !dbg !4165
  br i1 %20, label %41, label %21, !dbg !4173, !llvm.loop !4182

; <label>:21:                                     ; preds = %10
  br label %22, !dbg !4177

; <label>:22:                                     ; preds = %21, %36
  %23 = phi i64 [ %38, %36 ], [ %19, %21 ]
  %24 = phi i32 [ %37, %36 ], [ %18, %21 ]
  tail call void @llvm.dbg.value(metadata i32 %24, i64 0, metadata !4148, metadata !2015), !dbg !4163
  tail call void @llvm.dbg.value(metadata i32 undef, i64 0, metadata !4149, metadata !2015), !dbg !4164
  tail call void @llvm.dbg.value(metadata %"class.std::vector"* %0, i64 0, metadata !4154, metadata !2015), !dbg !4175
  tail call void @llvm.dbg.value(metadata i64 %23, i64 0, metadata !4157, metadata !2015), !dbg !4176
  %25 = getelementptr inbounds i64, i64* %8, i64 %23, !dbg !4177
  %26 = load i64, i64* %25, align 8, !dbg !4178, !tbaa !2276
  %27 = icmp sgt i64 %26, %13, !dbg !4179
  br i1 %27, label %36, label %28, !dbg !4180

; <label>:28:                                     ; preds = %22
  %29 = add nsw i32 %24, 1, !dbg !4184
  tail call void @llvm.dbg.value(metadata i32 %29, i64 0, metadata !4148, metadata !2015), !dbg !4163
  %30 = trunc i64 %23 to i32, !dbg !4186
  %31 = icmp eq i32 %29, %30, !dbg !4186
  br i1 %31, label %36, label %32, !dbg !4188

; <label>:32:                                     ; preds = %28
  %33 = sext i32 %29 to i64, !dbg !4189
  tail call void @llvm.dbg.value(metadata %"class.std::vector"* %0, i64 0, metadata !4154, metadata !2015), !dbg !4190
  tail call void @llvm.dbg.value(metadata i64 %33, i64 0, metadata !4157, metadata !2015), !dbg !4192
  %34 = getelementptr inbounds i64, i64* %8, i64 %33, !dbg !4193
  tail call void @llvm.dbg.value(metadata %"class.std::vector"* %0, i64 0, metadata !4154, metadata !2015), !dbg !4194
  tail call void @llvm.dbg.value(metadata i64 %23, i64 0, metadata !4157, metadata !2015), !dbg !4196
  tail call void @llvm.dbg.value(metadata i64* %34, i64 0, metadata !3880, metadata !2015), !dbg !4197
  tail call void @llvm.dbg.value(metadata i64* %25, i64 0, metadata !3886, metadata !2015), !dbg !4199
  %35 = load i64, i64* %34, align 8, !dbg !4200, !tbaa !2276
  tail call void @llvm.dbg.value(metadata i64 %35, i64 0, metadata !3887, metadata !2015), !dbg !4201
  store i64 %26, i64* %34, align 8, !dbg !4202, !tbaa !2276
  store i64 %35, i64* %25, align 8, !dbg !4203, !tbaa !2276
  br label %36, !dbg !4204

; <label>:36:                                     ; preds = %28, %22, %32
  %37 = phi i32 [ %29, %32 ], [ %29, %28 ], [ %24, %22 ]
  tail call void @llvm.dbg.value(metadata i32 %37, i64 0, metadata !4148, metadata !2015), !dbg !4163
  %38 = add nsw i64 %23, 1, !dbg !4181
  tail call void @llvm.dbg.value(metadata i32 %37, i64 0, metadata !4148, metadata !2015), !dbg !4163
  %39 = icmp eq i64 %38, %4, !dbg !4165
  br i1 %39, label %40, label %22, !dbg !4173, !llvm.loop !4205

; <label>:40:                                     ; preds = %36
  br label %41, !dbg !4207

; <label>:41:                                     ; preds = %40, %3, %10
  %42 = phi i32 [ %18, %10 ], [ %6, %3 ], [ %37, %40 ]
  %43 = add nsw i32 %42, 1, !dbg !4207
  %44 = sext i32 %43 to i64, !dbg !4208
  tail call void @llvm.dbg.value(metadata %"class.std::vector"* %0, i64 0, metadata !4154, metadata !2015), !dbg !4209
  tail call void @llvm.dbg.value(metadata i64 %44, i64 0, metadata !4157, metadata !2015), !dbg !4211
  %45 = getelementptr inbounds i64, i64* %8, i64 %44, !dbg !4212
  tail call void @llvm.dbg.value(metadata %"class.std::vector"* %0, i64 0, metadata !4154, metadata !2015), !dbg !4213
  tail call void @llvm.dbg.value(metadata i64 %4, i64 0, metadata !4157, metadata !2015), !dbg !4215
  tail call void @llvm.dbg.value(metadata i64* %45, i64 0, metadata !3880, metadata !2015), !dbg !4216
  tail call void @llvm.dbg.value(metadata i64* %9, i64 0, metadata !3886, metadata !2015), !dbg !4218
  %46 = load i64, i64* %45, align 8, !dbg !4219, !tbaa !2276
  tail call void @llvm.dbg.value(metadata i64 %46, i64 0, metadata !3887, metadata !2015), !dbg !4220
  %47 = load i64, i64* %9, align 8, !dbg !4221, !tbaa !2276
  store i64 %47, i64* %45, align 8, !dbg !4222, !tbaa !2276
  store i64 %46, i64* %9, align 8, !dbg !4223, !tbaa !2276
  ret i32 %43, !dbg !4224
}

; Function Attrs: nounwind uwtable
define void @_Z9quickSortRSt6vectorIlSaIlEEii(%"class.std::vector"* readonly dereferenceable(24), i32, i32) local_unnamed_addr #1 !dbg !4225 {
  tail call void @llvm.dbg.value(metadata %"class.std::vector"* %0, i64 0, metadata !4229, metadata !2015), !dbg !4233
  tail call void @llvm.dbg.value(metadata i32 %1, i64 0, metadata !4230, metadata !2015), !dbg !4234
  tail call void @llvm.dbg.value(metadata i32 %2, i64 0, metadata !4231, metadata !2015), !dbg !4235
  %4 = icmp slt i32 %1, %2, !dbg !4236
  br i1 %4, label %5, label %54, !dbg !4238

; <label>:5:                                      ; preds = %3
  %6 = sext i32 %2 to i64
  %7 = getelementptr inbounds %"class.std::vector", %"class.std::vector"* %0, i64 0, i32 0, i32 0, i32 0
  br label %8, !dbg !4238

; <label>:8:                                      ; preds = %5, %44
  %9 = phi i32 [ %1, %5 ], [ %51, %44 ]
  tail call void @llvm.dbg.value(metadata %"class.std::vector"* %0, i64 0, metadata !4144, metadata !2015), !dbg !4239
  tail call void @llvm.dbg.value(metadata i32 %9, i64 0, metadata !4145, metadata !2015), !dbg !4241
  tail call void @llvm.dbg.value(metadata i32 %2, i64 0, metadata !4146, metadata !2015), !dbg !4242
  tail call void @llvm.dbg.value(metadata i32 %9, i64 0, metadata !4230, metadata !2015), !dbg !4234
  tail call void @llvm.dbg.value(metadata %"class.std::vector"* %0, i64 0, metadata !4154, metadata !2015), !dbg !4243
  tail call void @llvm.dbg.value(metadata i64 %6, i64 0, metadata !4157, metadata !2015), !dbg !4245
  tail call void @llvm.dbg.value(metadata i32 %9, i64 0, metadata !4149, metadata !2015), !dbg !4246
  tail call void @llvm.dbg.value(metadata i32 %9, i64 0, metadata !4149, metadata !2015), !dbg !4246
  %10 = load i64*, i64** %7, align 8, !dbg !4247, !tbaa !2198
  %11 = getelementptr inbounds i64, i64* %10, i64 %6, !dbg !4249
  %12 = load i64, i64* %11, align 8, !dbg !4250, !tbaa !2276
  %13 = shl i64 %12, 32
  %14 = ashr exact i64 %13, 32
  %15 = sext i32 %9 to i64, !dbg !4251
  tail call void @llvm.dbg.value(metadata i32 undef, i64 0, metadata !4149, metadata !2015), !dbg !4246
  tail call void @llvm.dbg.value(metadata %"class.std::vector"* %0, i64 0, metadata !4154, metadata !2015), !dbg !4252
  tail call void @llvm.dbg.value(metadata i64 %15, i64 0, metadata !4157, metadata !2015), !dbg !4253
  %16 = getelementptr inbounds i64, i64* %10, i64 %15, !dbg !4254
  %17 = load i64, i64* %16, align 8, !dbg !4255, !tbaa !2276
  %18 = icmp sgt i64 %17, %14, !dbg !4256
  tail call void @llvm.dbg.value(metadata i32 %9, i64 0, metadata !4148, metadata !2015), !dbg !4257
  %19 = sext i1 %18 to i32, !dbg !4258
  %20 = add nsw i32 %9, %19, !dbg !4258
  tail call void @llvm.dbg.value(metadata i32 %20, i64 0, metadata !4148, metadata !2015), !dbg !4257
  %21 = add nsw i64 %15, 1, !dbg !4259
  tail call void @llvm.dbg.value(metadata i32 %20, i64 0, metadata !4148, metadata !2015), !dbg !4257
  %22 = icmp eq i64 %21, %6, !dbg !4260
  br i1 %22, label %44, label %23, !dbg !4251, !llvm.loop !4182

; <label>:23:                                     ; preds = %8
  br label %24, !dbg !4254

; <label>:24:                                     ; preds = %23, %38
  %25 = phi i64 [ %40, %38 ], [ %21, %23 ]
  %26 = phi i32 [ %39, %38 ], [ %20, %23 ]
  tail call void @llvm.dbg.value(metadata i32 %26, i64 0, metadata !4148, metadata !2015), !dbg !4257
  tail call void @llvm.dbg.value(metadata i32 undef, i64 0, metadata !4149, metadata !2015), !dbg !4246
  tail call void @llvm.dbg.value(metadata %"class.std::vector"* %0, i64 0, metadata !4154, metadata !2015), !dbg !4252
  tail call void @llvm.dbg.value(metadata i64 %25, i64 0, metadata !4157, metadata !2015), !dbg !4253
  %27 = getelementptr inbounds i64, i64* %10, i64 %25, !dbg !4254
  %28 = load i64, i64* %27, align 8, !dbg !4255, !tbaa !2276
  %29 = icmp sgt i64 %28, %14, !dbg !4256
  br i1 %29, label %38, label %30, !dbg !4258

; <label>:30:                                     ; preds = %24
  %31 = add nsw i32 %26, 1, !dbg !4261
  tail call void @llvm.dbg.value(metadata i32 %31, i64 0, metadata !4148, metadata !2015), !dbg !4257
  %32 = trunc i64 %25 to i32, !dbg !4262
  %33 = icmp eq i32 %31, %32, !dbg !4262
  br i1 %33, label %38, label %34, !dbg !4263

; <label>:34:                                     ; preds = %30
  %35 = sext i32 %31 to i64, !dbg !4264
  tail call void @llvm.dbg.value(metadata %"class.std::vector"* %0, i64 0, metadata !4154, metadata !2015), !dbg !4265
  tail call void @llvm.dbg.value(metadata i64 %35, i64 0, metadata !4157, metadata !2015), !dbg !4267
  %36 = getelementptr inbounds i64, i64* %10, i64 %35, !dbg !4268
  tail call void @llvm.dbg.value(metadata %"class.std::vector"* %0, i64 0, metadata !4154, metadata !2015), !dbg !4269
  tail call void @llvm.dbg.value(metadata i64 %25, i64 0, metadata !4157, metadata !2015), !dbg !4271
  tail call void @llvm.dbg.value(metadata i64* %36, i64 0, metadata !3880, metadata !2015), !dbg !4272
  tail call void @llvm.dbg.value(metadata i64* %27, i64 0, metadata !3886, metadata !2015), !dbg !4274
  %37 = load i64, i64* %36, align 8, !dbg !4275, !tbaa !2276
  tail call void @llvm.dbg.value(metadata i64 %37, i64 0, metadata !3887, metadata !2015), !dbg !4276
  store i64 %28, i64* %36, align 8, !dbg !4277, !tbaa !2276
  store i64 %37, i64* %27, align 8, !dbg !4278, !tbaa !2276
  br label %38, !dbg !4279

; <label>:38:                                     ; preds = %34, %30, %24
  %39 = phi i32 [ %31, %34 ], [ %31, %30 ], [ %26, %24 ]
  tail call void @llvm.dbg.value(metadata i32 %39, i64 0, metadata !4148, metadata !2015), !dbg !4257
  %40 = add nsw i64 %25, 1, !dbg !4259
  tail call void @llvm.dbg.value(metadata i32 %39, i64 0, metadata !4148, metadata !2015), !dbg !4257
  %41 = icmp eq i64 %40, %6, !dbg !4260
  br i1 %41, label %42, label %24, !dbg !4251, !llvm.loop !4205

; <label>:42:                                     ; preds = %38
  %43 = load i64, i64* %11, align 8, !tbaa !2276
  br label %44, !dbg !4280

; <label>:44:                                     ; preds = %42, %8
  %45 = phi i64 [ %12, %8 ], [ %43, %42 ], !dbg !4281
  %46 = phi i32 [ %20, %8 ], [ %39, %42 ]
  %47 = add nsw i32 %46, 1, !dbg !4280
  %48 = sext i32 %47 to i64, !dbg !4283
  tail call void @llvm.dbg.value(metadata %"class.std::vector"* %0, i64 0, metadata !4154, metadata !2015), !dbg !4284
  tail call void @llvm.dbg.value(metadata i64 %48, i64 0, metadata !4157, metadata !2015), !dbg !4286
  %49 = getelementptr inbounds i64, i64* %10, i64 %48, !dbg !4287
  tail call void @llvm.dbg.value(metadata %"class.std::vector"* %0, i64 0, metadata !4154, metadata !2015), !dbg !4288
  tail call void @llvm.dbg.value(metadata i64 %6, i64 0, metadata !4157, metadata !2015), !dbg !4290
  tail call void @llvm.dbg.value(metadata i64* %49, i64 0, metadata !3880, metadata !2015), !dbg !4291
  tail call void @llvm.dbg.value(metadata i64* %11, i64 0, metadata !3886, metadata !2015), !dbg !4292
  %50 = load i64, i64* %49, align 8, !dbg !4293, !tbaa !2276
  tail call void @llvm.dbg.value(metadata i64 %50, i64 0, metadata !3887, metadata !2015), !dbg !4294
  store i64 %45, i64* %49, align 8, !dbg !4295, !tbaa !2276
  store i64 %50, i64* %11, align 8, !dbg !4296, !tbaa !2276
  tail call void @llvm.dbg.value(metadata i32 %47, i64 0, metadata !4232, metadata !2015), !dbg !4297
  tail call void @_Z9quickSortRSt6vectorIlSaIlEEii(%"class.std::vector"* nonnull dereferenceable(24) %0, i32 %9, i32 %46), !dbg !4298
  %51 = add nsw i32 %46, 2, !dbg !4299
  tail call void @llvm.dbg.value(metadata %"class.std::vector"* %0, i64 0, metadata !4229, metadata !2015), !dbg !4233
  tail call void @llvm.dbg.value(metadata i32 %51, i64 0, metadata !4230, metadata !2015), !dbg !4234
  tail call void @llvm.dbg.value(metadata i32 %2, i64 0, metadata !4231, metadata !2015), !dbg !4235
  %52 = icmp slt i32 %51, %2, !dbg !4236
  br i1 %52, label %8, label %53, !dbg !4238

; <label>:53:                                     ; preds = %44
  br label %54, !dbg !4300

; <label>:54:                                     ; preds = %53, %3
  ret void, !dbg !4300
}

; Function Attrs: nounwind uwtable
define void @_Z12BM_quickSortRN9benchmark5StateE(%"class.benchmark::State"* dereferenceable(144)) local_unnamed_addr #1 !dbg !4301 {
  %2 = alloca <2 x i64>, align 16
  %3 = bitcast <2 x i64>* %2 to %"class.std::uniform_int_distribution"*
  %4 = alloca %"struct.std::uniform_int_distribution<unsigned long>::param_type", align 8
  %5 = alloca %"class.std::vector", align 8
  %6 = alloca %"class.std::linear_congruential_engine", align 8
  %7 = alloca %"class.std::vector", align 8
  tail call void @llvm.dbg.value(metadata %"class.benchmark::State"* %0, i64 0, metadata !4303, metadata !2015), !dbg !4311
  %8 = bitcast %"class.std::vector"* %5 to i8*, !dbg !4312
  call void @llvm.lifetime.start.p0i8(i64 24, i8* nonnull %8) #10, !dbg !4312
  tail call void @llvm.dbg.value(metadata %"class.benchmark::State"* %0, i64 0, metadata !3554, metadata !2015), !dbg !4313
  tail call void @llvm.dbg.value(metadata i64 0, i64 0, metadata !3557, metadata !2015), !dbg !4315
  tail call void @llvm.dbg.value(metadata %"class.benchmark::State"* %0, i64 0, metadata !3562, metadata !3567), !dbg !4316
  tail call void @llvm.dbg.value(metadata i64 0, i64 0, metadata !3565, metadata !2015), !dbg !4318
  %9 = getelementptr inbounds %"class.benchmark::State", %"class.benchmark::State"* %0, i64 0, i32 3, i32 0, i32 0, i32 0, !dbg !4319
  %10 = load i32*, i32** %9, align 8, !dbg !4319, !tbaa !3572
  %11 = load i32, i32* %10, align 4, !dbg !4320, !tbaa !3576
  tail call void @llvm.dbg.value(metadata %"class.std::vector"* %5, i64 0, metadata !4304, metadata !2015), !dbg !4321
  call void @_Z5rangei(%"class.std::vector"* nonnull sret %5, i32 %11), !dbg !4322
  %12 = bitcast %"class.std::linear_congruential_engine"* %6 to i8*, !dbg !4323
  call void @llvm.lifetime.start.p0i8(i64 8, i8* nonnull %12) #10, !dbg !4323
  tail call void @llvm.dbg.value(metadata %"class.std::linear_congruential_engine"* %6, i64 0, metadata !4305, metadata !2015), !dbg !4324
  %13 = getelementptr inbounds %"class.std::linear_congruential_engine", %"class.std::linear_congruential_engine"* %6, i64 0, i32 0
  store i64 200, i64* %13, align 8, !tbaa !3582
  tail call void @llvm.dbg.value(metadata %"class.std::vector"* %5, i64 0, metadata !4304, metadata !2015), !dbg !4321
  tail call void @llvm.dbg.value(metadata %"class.std::vector"* %5, i64 0, metadata !3584, metadata !2015), !dbg !4325
  tail call void @llvm.dbg.value(metadata %"class.__gnu_cxx::__normal_iterator"* undef, i64 0, metadata !3589, metadata !2015), !dbg !4327
  tail call void @llvm.dbg.value(metadata %"class.std::vector"* %5, i64 0, metadata !3592, metadata !2015), !dbg !4329
  %14 = getelementptr inbounds %"class.std::vector", %"class.std::vector"* %5, i64 0, i32 0, i32 0, i32 0, !dbg !4330
  %15 = load i64*, i64** %14, align 8, !dbg !4330, !tbaa !2418
  tail call void @llvm.dbg.value(metadata %"class.std::vector"* %5, i64 0, metadata !4304, metadata !2015), !dbg !4321
  tail call void @llvm.dbg.value(metadata %"class.std::vector"* %5, i64 0, metadata !3598, metadata !2015), !dbg !4331
  %16 = getelementptr inbounds %"class.std::vector", %"class.std::vector"* %5, i64 0, i32 0, i32 0, i32 1, !dbg !4333
  tail call void @llvm.dbg.value(metadata %"class.__gnu_cxx::__normal_iterator"* undef, i64 0, metadata !3589, metadata !2015), !dbg !4334
  tail call void @llvm.dbg.value(metadata i64** %16, i64 0, metadata !3592, metadata !2015), !dbg !4336
  %17 = load i64*, i64** %16, align 8, !dbg !4337, !tbaa !2418
  tail call void @llvm.dbg.value(metadata %"class.std::linear_congruential_engine"* %6, i64 0, metadata !4305, metadata !2015), !dbg !4324
  %18 = ptrtoint i64* %15 to i64
  tail call void @llvm.dbg.value(metadata %"class.std::linear_congruential_engine"* %6, i64 0, metadata !3608, metadata !2015) #10, !dbg !4338
  tail call void @llvm.dbg.value(metadata %"class.__gnu_cxx::__normal_iterator"* undef, i64 0, metadata !3615, metadata !2015) #10, !dbg !4340
  tail call void @llvm.dbg.value(metadata %"class.__gnu_cxx::__normal_iterator"* undef, i64 0, metadata !3616, metadata !2015) #10, !dbg !4341
  tail call void @llvm.dbg.value(metadata %"class.__gnu_cxx::__normal_iterator"* undef, i64 0, metadata !3625, metadata !2015) #10, !dbg !4342
  tail call void @llvm.dbg.value(metadata %"class.__gnu_cxx::__normal_iterator"* undef, i64 0, metadata !3631, metadata !2015) #10, !dbg !4344
  %19 = icmp eq i64* %15, %17, !dbg !4345
  %20 = ptrtoint i64* %17 to i64, !dbg !4346
  br i1 %19, label %42, label %21, !dbg !4346

; <label>:21:                                     ; preds = %1
  %22 = bitcast <2 x i64>* %2 to i8*, !dbg !4347
  call void @llvm.lifetime.start.p0i8(i64 16, i8* nonnull %22) #10, !dbg !4347
  tail call void @llvm.dbg.value(metadata %"class.std::uniform_int_distribution"* %3, i64 0, metadata !3617, metadata !2015) #10, !dbg !4348
  tail call void @llvm.dbg.value(metadata %"class.std::uniform_int_distribution"* %3, i64 0, metadata !3640, metadata !2015) #10, !dbg !4349
  tail call void @llvm.dbg.value(metadata i64 0, i64 0, metadata !3643, metadata !2015) #10, !dbg !4351
  tail call void @llvm.dbg.value(metadata i64 -1, i64 0, metadata !3644, metadata !2015) #10, !dbg !4352
  tail call void @llvm.dbg.value(metadata %"class.std::uniform_int_distribution"* %3, i64 0, metadata !3649, metadata !2015) #10, !dbg !4353
  tail call void @llvm.dbg.value(metadata i64 0, i64 0, metadata !3652, metadata !2015) #10, !dbg !4355
  tail call void @llvm.dbg.value(metadata i64 -1, i64 0, metadata !3653, metadata !2015) #10, !dbg !4356
  store <2 x i64> <i64 0, i64 -1>, <2 x i64>* %2, align 16, !dbg !4357, !tbaa !2276
  tail call void @llvm.dbg.value(metadata %"class.__gnu_cxx::__normal_iterator"* undef, i64 0, metadata !3615, metadata !2015) #10, !dbg !4340
  tail call void @llvm.dbg.value(metadata %"class.__gnu_cxx::__normal_iterator"* undef, i64 0, metadata !3660, metadata !2015) #10, !dbg !4358
  %23 = getelementptr inbounds i64, i64* %15, i64 1
  tail call void @llvm.dbg.value(metadata %"class.__gnu_cxx::__normal_iterator"* undef, i64 0, metadata !3616, metadata !2015) #10, !dbg !4341
  tail call void @llvm.dbg.value(metadata %"class.__gnu_cxx::__normal_iterator"* undef, i64 0, metadata !3619, metadata !2015) #10, !dbg !4360
  tail call void @llvm.dbg.value(metadata %"class.__gnu_cxx::__normal_iterator"* undef, i64 0, metadata !3668, metadata !2015) #10, !dbg !4361
  tail call void @llvm.dbg.value(metadata %"class.__gnu_cxx::__normal_iterator"* undef, i64 0, metadata !3671, metadata !2015) #10, !dbg !4363
  %24 = icmp eq i64* %23, %17, !dbg !4364
  br i1 %24, label %30, label %25, !dbg !4365

; <label>:25:                                     ; preds = %21
  %26 = bitcast %"struct.std::uniform_int_distribution<unsigned long>::param_type"* %4 to i8*
  %27 = getelementptr inbounds %"struct.std::uniform_int_distribution<unsigned long>::param_type", %"struct.std::uniform_int_distribution<unsigned long>::param_type"* %4, i64 0, i32 0
  %28 = getelementptr inbounds %"struct.std::uniform_int_distribution<unsigned long>::param_type", %"struct.std::uniform_int_distribution<unsigned long>::param_type"* %4, i64 0, i32 1
  br label %31, !dbg !4365

; <label>:29:                                     ; preds = %31
  br label %30, !dbg !4366

; <label>:30:                                     ; preds = %29, %21
  call void @llvm.lifetime.end.p0i8(i64 16, i8* nonnull %22) #10, !dbg !4366
  br label %42, !dbg !4366

; <label>:31:                                     ; preds = %31, %25
  %32 = phi i64* [ %23, %25 ], [ %40, %31 ]
  %33 = ptrtoint i64* %32 to i64
  call void @llvm.lifetime.start.p0i8(i64 16, i8* nonnull %26) #10, !dbg !4367
  call void @llvm.dbg.value(metadata %"class.__gnu_cxx::__normal_iterator"* undef, i64 0, metadata !3615, metadata !2015) #10, !dbg !4340
  call void @llvm.dbg.value(metadata %"class.__gnu_cxx::__normal_iterator"* undef, i64 0, metadata !3619, metadata !2015) #10, !dbg !4360
  call void @llvm.dbg.value(metadata %"class.__gnu_cxx::__normal_iterator"* undef, i64 0, metadata !3845, metadata !2015) #10, !dbg !4368
  call void @llvm.dbg.value(metadata %"class.__gnu_cxx::__normal_iterator"* undef, i64 0, metadata !3850, metadata !2015) #10, !dbg !4370
  %34 = sub i64 %33, %18, !dbg !4371
  %35 = ashr exact i64 %34, 3, !dbg !4371
  call void @llvm.dbg.value(metadata %"struct.std::uniform_int_distribution<unsigned long>::param_type"* %4, i64 0, metadata !3649, metadata !2015) #10, !dbg !4372
  call void @llvm.dbg.value(metadata i64 0, i64 0, metadata !3652, metadata !2015) #10, !dbg !4374
  call void @llvm.dbg.value(metadata i64 %35, i64 0, metadata !3653, metadata !2015) #10, !dbg !4375
  store i64 0, i64* %27, align 8, !dbg !4376, !tbaa !3860
  store i64 %35, i64* %28, align 8, !dbg !4377, !tbaa !3863
  call void @llvm.dbg.value(metadata %"class.std::uniform_int_distribution"* %3, i64 0, metadata !3617, metadata !2015) #10, !dbg !4348
  %36 = call i64 @_ZNSt24uniform_int_distributionImEclISt26linear_congruential_engineImLm48271ELm0ELm2147483647EEEEmRT_RKNS0_10param_typeE(%"class.std::uniform_int_distribution"* nonnull %3, %"class.std::linear_congruential_engine"* nonnull dereferenceable(8) %6, %"struct.std::uniform_int_distribution<unsigned long>::param_type"* nonnull dereferenceable(16) %4) #10, !dbg !4378
  call void @llvm.dbg.value(metadata %"class.__gnu_cxx::__normal_iterator"* undef, i64 0, metadata !3615, metadata !2015) #10, !dbg !4340
  call void @llvm.dbg.value(metadata %"class.__gnu_cxx::__normal_iterator"* undef, i64 0, metadata !3660, metadata !2015) #10, !dbg !4379
  %37 = getelementptr inbounds i64, i64* %15, i64 %36, !dbg !4381
  call void @llvm.dbg.value(metadata %"class.__gnu_cxx::__normal_iterator"* undef, i64 0, metadata !3868, metadata !2015) #10, !dbg !4382
  call void @llvm.dbg.value(metadata %"class.__gnu_cxx::__normal_iterator"* undef, i64 0, metadata !3876, metadata !2015) #10, !dbg !4384
  call void @llvm.dbg.value(metadata i64* %32, i64 0, metadata !3880, metadata !2015) #10, !dbg !4385
  call void @llvm.dbg.value(metadata i64* %37, i64 0, metadata !3886, metadata !2015) #10, !dbg !4387
  %38 = load i64, i64* %32, align 8, !dbg !4388, !tbaa !2276
  call void @llvm.dbg.value(metadata i64 %38, i64 0, metadata !3887, metadata !2015) #10, !dbg !4389
  %39 = load i64, i64* %37, align 8, !dbg !4390, !tbaa !2276
  store i64 %39, i64* %32, align 8, !dbg !4391, !tbaa !2276
  store i64 %38, i64* %37, align 8, !dbg !4392, !tbaa !2276
  call void @llvm.lifetime.end.p0i8(i64 16, i8* nonnull %26) #10, !dbg !4393
  call void @llvm.dbg.value(metadata %"class.__gnu_cxx::__normal_iterator"* undef, i64 0, metadata !3619, metadata !2015) #10, !dbg !4360
  %40 = getelementptr inbounds i64, i64* %32, i64 1
  call void @llvm.dbg.value(metadata %"class.__gnu_cxx::__normal_iterator"* undef, i64 0, metadata !3616, metadata !2015) #10, !dbg !4341
  call void @llvm.dbg.value(metadata %"class.__gnu_cxx::__normal_iterator"* undef, i64 0, metadata !3619, metadata !2015) #10, !dbg !4360
  call void @llvm.dbg.value(metadata %"class.__gnu_cxx::__normal_iterator"* undef, i64 0, metadata !3668, metadata !2015) #10, !dbg !4361
  call void @llvm.dbg.value(metadata %"class.__gnu_cxx::__normal_iterator"* undef, i64 0, metadata !3671, metadata !2015) #10, !dbg !4363
  %41 = icmp eq i64* %40, %17, !dbg !4364
  br i1 %41, label %29, label %31, !dbg !4365, !llvm.loop !3897

; <label>:42:                                     ; preds = %1, %30
  call void @llvm.dbg.value(metadata %"class.std::vector"* %5, i64 0, metadata !4304, metadata !2015), !dbg !4321
  tail call void @llvm.dbg.value(metadata %"class.std::vector"* %5, i64 0, metadata !2039, metadata !2015), !dbg !4394
  %43 = sub i64 %20, %18, !dbg !4396
  %44 = lshr exact i64 %43, 3, !dbg !4396
  %45 = add nuw nsw i64 %44, 4294967295, !dbg !4397
  %46 = trunc i64 %45 to i32, !dbg !4398
  call void @llvm.dbg.value(metadata i32 %46, i64 0, metadata !4306, metadata !2015), !dbg !4399
  %47 = getelementptr inbounds %"class.benchmark::State", %"class.benchmark::State"* %0, i64 0, i32 0
  %48 = getelementptr inbounds %"class.benchmark::State", %"class.benchmark::State"* %0, i64 0, i32 2
  %49 = getelementptr inbounds %"class.benchmark::State", %"class.benchmark::State"* %0, i64 0, i32 11
  %50 = bitcast %"class.std::vector"* %7 to i8*
  %51 = ashr exact i64 %43, 3
  %52 = icmp eq i64 %51, 0
  %53 = getelementptr inbounds %"class.std::vector", %"class.std::vector"* %7, i64 0, i32 0, i32 0, i32 0
  %54 = getelementptr inbounds %"class.std::vector", %"class.std::vector"* %7, i64 0, i32 0, i32 0, i32 1
  %55 = bitcast i64** %54 to i8**
  %56 = getelementptr inbounds %"class.std::vector", %"class.std::vector"* %7, i64 0, i32 0, i32 0, i32 2
  %57 = bitcast i64* %15 to i8*
  br i1 %52, label %58, label %75, !dbg !4400

; <label>:58:                                     ; preds = %42
  %59 = bitcast %"class.std::vector"* %7 to i8*
  br label %60, !dbg !4401

; <label>:60:                                     ; preds = %58, %74
  call void @llvm.dbg.value(metadata %"class.benchmark::State"* %0, i64 0, metadata !3683, metadata !2015) #10, !dbg !4403
  %61 = load i8, i8* %47, align 8, !dbg !4401, !tbaa !3688, !range !3698
  %62 = icmp eq i8 %61, 1, !dbg !4401
  br i1 %62, label %64, label %63, !dbg !4404, !prof !3700

; <label>:63:                                     ; preds = %60
  call void @_ZN9benchmark5State16StartKeepRunningEv(%"class.benchmark::State"* nonnull %0) #10, !dbg !4405
  br label %64, !dbg !4406

; <label>:64:                                     ; preds = %63, %60
  %65 = load i64, i64* %48, align 8, !dbg !4407, !tbaa !3705
  %66 = add i64 %65, 1, !dbg !4407
  store i64 %66, i64* %48, align 8, !dbg !4407, !tbaa !3705
  %67 = load i64, i64* %49, align 8, !dbg !4408, !tbaa !3707
  %68 = icmp ult i64 %65, %67, !dbg !4409
  br i1 %68, label %69, label %107, !dbg !4410, !prof !3700

; <label>:69:                                     ; preds = %64
  call void @llvm.lifetime.start.p0i8(i64 24, i8* nonnull %50) #10, !dbg !4411
  call void @llvm.dbg.value(metadata %"class.std::vector"* %5, i64 0, metadata !4304, metadata !2015), !dbg !4321
  call void @llvm.dbg.value(metadata %"class.std::vector"* %7, i64 0, metadata !4307, metadata !2015), !dbg !4412
  call void @llvm.dbg.value(metadata %"class.std::vector"* %7, i64 0, metadata !3711, metadata !2015) #10, !dbg !4413
  call void @llvm.dbg.value(metadata %"class.std::vector"* %5, i64 0, metadata !3714, metadata !2015) #10, !dbg !4415
  call void @llvm.dbg.value(metadata %"class.std::vector"* %5, i64 0, metadata !2039, metadata !2015) #10, !dbg !4416
  call void @llvm.dbg.value(metadata %"class.std::vector"* %7, i64 0, metadata !3718, metadata !2015) #10, !dbg !4418
  call void @llvm.dbg.value(metadata i64 %51, i64 0, metadata !3721, metadata !2015) #10, !dbg !4420
  call void @llvm.dbg.value(metadata %"class.std::allocator"* undef, i64 0, metadata !3722, metadata !2015) #10, !dbg !4421
  call void @llvm.dbg.value(metadata %"class.std::vector"* %7, i64 0, metadata !4422, metadata !2015) #10, !dbg !4427
  call void @llvm.dbg.value(metadata %"class.std::allocator"* undef, i64 0, metadata !4425, metadata !2015) #10, !dbg !4429
  call void @llvm.dbg.value(metadata %"class.std::vector"* %7, i64 0, metadata !3727, metadata !2015) #10, !dbg !4430
  call void @llvm.dbg.value(metadata i64 %51, i64 0, metadata !3730, metadata !2015) #10, !dbg !4432
  call void @llvm.dbg.value(metadata %"class.std::vector"* %7, i64 0, metadata !2067, metadata !2015) #10, !dbg !4433
  call void @llvm.dbg.value(metadata i64 %51, i64 0, metadata !2064, metadata !2015) #10, !dbg !4435
  call void @llvm.dbg.value(metadata i64* %15, i64 0, metadata !3745, metadata !2015) #10, !dbg !4436
  call void @llvm.dbg.value(metadata i64** %16, i64 0, metadata !3738, metadata !2058) #10, !dbg !4438
  call void @llvm.dbg.declare(metadata %"class.__gnu_cxx::__normal_iterator.21"* undef, metadata !3745, metadata !2015) #10, !dbg !4436
  call void @llvm.dbg.declare(metadata %"class.__gnu_cxx::__normal_iterator.21"* undef, metadata !3738, metadata !2015) #10, !dbg !4438
  call void @llvm.dbg.value(metadata i64* null, i64 0, metadata !3746, metadata !2015) #10, !dbg !4439
  call void @llvm.dbg.value(metadata i64* %15, i64 0, metadata !3759, metadata !2015) #10, !dbg !4440
  call void @llvm.dbg.value(metadata i64** %16, i64 0, metadata !3753, metadata !2058) #10, !dbg !4442
  call void @llvm.dbg.declare(metadata %"class.__gnu_cxx::__normal_iterator.21"* undef, metadata !3759, metadata !2015) #10, !dbg !4440
  call void @llvm.dbg.declare(metadata %"class.__gnu_cxx::__normal_iterator.21"* undef, metadata !3753, metadata !2015) #10, !dbg !4442
  call void @llvm.dbg.value(metadata i64* null, i64 0, metadata !3760, metadata !2015) #10, !dbg !4443
  call void @llvm.dbg.value(metadata i64* %15, i64 0, metadata !3769, metadata !2015) #10, !dbg !4444
  call void @llvm.dbg.value(metadata i64** %16, i64 0, metadata !3765, metadata !2058) #10, !dbg !4446
  call void @llvm.dbg.declare(metadata %"class.__gnu_cxx::__normal_iterator.21"* undef, metadata !3769, metadata !2015) #10, !dbg !4444
  call void @llvm.dbg.declare(metadata %"class.__gnu_cxx::__normal_iterator.21"* undef, metadata !3765, metadata !2015) #10, !dbg !4446
  call void @llvm.dbg.value(metadata i64* null, i64 0, metadata !3770, metadata !2015) #10, !dbg !4447
  call void @llvm.dbg.value(metadata i64* %15, i64 0, metadata !3780, metadata !2015) #10, !dbg !4448
  call void @llvm.dbg.value(metadata i64** %16, i64 0, metadata !3775, metadata !2058) #10, !dbg !4450
  call void @llvm.dbg.declare(metadata %"class.__gnu_cxx::__normal_iterator.21"* undef, metadata !3780, metadata !2015) #10, !dbg !4448
  call void @llvm.dbg.declare(metadata %"class.__gnu_cxx::__normal_iterator.21"* undef, metadata !3775, metadata !2015) #10, !dbg !4450
  call void @llvm.dbg.value(metadata i64* null, i64 0, metadata !3781, metadata !2015) #10, !dbg !4451
  call void @llvm.dbg.value(metadata i64* %15, i64 0, metadata !3792, metadata !2015) #10, !dbg !4452
  call void @llvm.dbg.value(metadata i64** %16, i64 0, metadata !3786, metadata !2058) #10, !dbg !4454
  call void @llvm.dbg.declare(metadata %"class.__gnu_cxx::__normal_iterator.21"* undef, metadata !3792, metadata !2015) #10, !dbg !4452
  call void @llvm.dbg.declare(metadata %"class.__gnu_cxx::__normal_iterator.21"* undef, metadata !3786, metadata !2015) #10, !dbg !4454
  call void @llvm.dbg.value(metadata i64* null, i64 0, metadata !3793, metadata !2015) #10, !dbg !4455
  call void @llvm.dbg.value(metadata i64* %15, i64 0, metadata !3803, metadata !2015) #10, !dbg !4456
  call void @llvm.dbg.value(metadata i64** %16, i64 0, metadata !3798, metadata !2058) #10, !dbg !4458
  call void @llvm.dbg.value(metadata i64* null, i64 0, metadata !3804, metadata !2015) #10, !dbg !4459
  call void @llvm.dbg.value(metadata i8 1, i64 0, metadata !3805, metadata !2015) #10, !dbg !4460
  call void @llvm.dbg.value(metadata i64* %15, i64 0, metadata !3817, metadata !2015) #10, !dbg !4461
  call void @llvm.dbg.value(metadata i64** %16, i64 0, metadata !3810, metadata !2058) #10, !dbg !4463
  call void @llvm.dbg.value(metadata i64* null, i64 0, metadata !3818, metadata !2015) #10, !dbg !4464
  call void @llvm.dbg.value(metadata i64 %51, i64 0, metadata !3819, metadata !2015) #10, !dbg !4465
  call void @llvm.memset.p0i8.i64(i8* nonnull %59, i8 0, i64 24, i32 8, i1 false), !dbg !4466
  store i64* null, i64** %54, align 8, !dbg !4467, !tbaa !2205
  call void @llvm.dbg.value(metadata %"class.std::vector"* %7, i64 0, metadata !4307, metadata !2015), !dbg !4412
  call void @_Z9quickSortRSt6vectorIlSaIlEEii(%"class.std::vector"* nonnull dereferenceable(24) %7, i32 0, i32 %46), !dbg !4468
  call void @llvm.dbg.value(metadata %"class.std::vector"* %7, i64 0, metadata !4307, metadata !2015), !dbg !4412
  call void @llvm.dbg.value(metadata %"class.std::vector"* %7, i64 0, metadata !3824, metadata !2015) #10, !dbg !4469
  call void @llvm.dbg.value(metadata %"class.std::vector"* %7, i64 0, metadata !3829, metadata !2015) #10, !dbg !4471
  %70 = load i64*, i64** %53, align 8, !dbg !4473, !tbaa !2198
  call void @llvm.dbg.value(metadata %"class.std::vector"* %7, i64 0, metadata !2193, metadata !2015) #10, !dbg !4474
  call void @llvm.dbg.value(metadata i64* %70, i64 0, metadata !2190, metadata !2015) #10, !dbg !4476
  %71 = icmp eq i64* %70, null, !dbg !4477
  br i1 %71, label %74, label %72, !dbg !4478

; <label>:72:                                     ; preds = %69
  call void @llvm.dbg.value(metadata i64* %70, i64 0, metadata !2410, metadata !2015) #10, !dbg !4479
  %73 = bitcast i64* %70 to i8*, !dbg !4481
  call void @_ZdlPv(i8* %73) #10, !dbg !4482
  br label %74, !dbg !4483

; <label>:74:                                     ; preds = %72, %69
  call void @llvm.lifetime.end.p0i8(i64 24, i8* nonnull %50) #10, !dbg !4484
  br label %60, !dbg !4400, !llvm.loop !4485

; <label>:75:                                     ; preds = %42
  %76 = icmp ugt i64 %51, 2305843009213693951
  br i1 %76, label %79, label %77, !dbg !4400

; <label>:77:                                     ; preds = %75
  %78 = bitcast %"class.std::vector"* %7 to i8**
  br label %89, !dbg !4401

; <label>:79:                                     ; preds = %75
  call void @llvm.dbg.value(metadata %"class.benchmark::State"* %0, i64 0, metadata !3683, metadata !2015) #10, !dbg !4403
  %80 = load i8, i8* %47, align 8, !dbg !4401, !tbaa !3688, !range !3698
  %81 = icmp eq i8 %80, 1, !dbg !4401
  br i1 %81, label %83, label %82, !dbg !4404, !prof !3700

; <label>:82:                                     ; preds = %79
  call void @_ZN9benchmark5State16StartKeepRunningEv(%"class.benchmark::State"* nonnull %0) #10, !dbg !4405
  br label %83, !dbg !4406

; <label>:83:                                     ; preds = %82, %79
  %84 = load i64, i64* %48, align 8, !dbg !4407, !tbaa !3705
  %85 = add i64 %84, 1, !dbg !4407
  store i64 %85, i64* %48, align 8, !dbg !4407, !tbaa !3705
  %86 = load i64, i64* %49, align 8, !dbg !4408, !tbaa !3707
  %87 = icmp ult i64 %84, %86, !dbg !4409
  br i1 %87, label %88, label %109, !dbg !4410, !prof !3700

; <label>:88:                                     ; preds = %83
  call void @llvm.lifetime.start.p0i8(i64 24, i8* nonnull %50) #10, !dbg !4411
  call void @llvm.dbg.value(metadata %"class.std::vector"* %5, i64 0, metadata !4304, metadata !2015), !dbg !4321
  call void @llvm.dbg.value(metadata %"class.std::vector"* %7, i64 0, metadata !4307, metadata !2015), !dbg !4412
  call void @llvm.dbg.value(metadata %"class.std::vector"* %7, i64 0, metadata !3711, metadata !2015) #10, !dbg !4413
  call void @llvm.dbg.value(metadata %"class.std::vector"* %5, i64 0, metadata !3714, metadata !2015) #10, !dbg !4415
  call void @llvm.dbg.value(metadata %"class.std::vector"* %5, i64 0, metadata !2039, metadata !2015) #10, !dbg !4416
  call void @llvm.dbg.value(metadata %"class.std::vector"* %7, i64 0, metadata !3718, metadata !2015) #10, !dbg !4418
  call void @llvm.dbg.value(metadata i64 %51, i64 0, metadata !3721, metadata !2015) #10, !dbg !4420
  call void @llvm.dbg.value(metadata %"class.std::allocator"* undef, i64 0, metadata !3722, metadata !2015) #10, !dbg !4421
  call void @llvm.dbg.value(metadata %"class.std::vector"* %7, i64 0, metadata !4422, metadata !2015) #10, !dbg !4427
  call void @llvm.dbg.value(metadata %"class.std::allocator"* undef, i64 0, metadata !4425, metadata !2015) #10, !dbg !4429
  call void @llvm.memset.p0i8.i64(i8* nonnull %50, i8 0, i64 24, i32 8, i1 false) #10, !dbg !4486
  call void @llvm.dbg.value(metadata %"class.std::vector"* %7, i64 0, metadata !3727, metadata !2015) #10, !dbg !4430
  call void @llvm.dbg.value(metadata i64 %51, i64 0, metadata !3730, metadata !2015) #10, !dbg !4432
  call void @llvm.dbg.value(metadata %"class.std::vector"* %7, i64 0, metadata !2067, metadata !2015) #10, !dbg !4433
  call void @llvm.dbg.value(metadata i64 %51, i64 0, metadata !2064, metadata !2015) #10, !dbg !4435
  call void @llvm.dbg.value(metadata i64 %51, i64 0, metadata !2071, metadata !2015) #10, !dbg !4487
  call void @llvm.dbg.value(metadata i8* null, i64 0, metadata !2076, metadata !2015) #10, !dbg !4489
  call void @_ZSt17__throw_bad_allocv() #9, !dbg !4490
  unreachable, !dbg !4490

; <label>:89:                                     ; preds = %77, %106
  call void @llvm.dbg.value(metadata %"class.benchmark::State"* %0, i64 0, metadata !3683, metadata !2015) #10, !dbg !4403
  %90 = load i8, i8* %47, align 8, !dbg !4401, !tbaa !3688, !range !3698
  %91 = icmp eq i8 %90, 1, !dbg !4401
  br i1 %91, label %93, label %92, !dbg !4404, !prof !3700

; <label>:92:                                     ; preds = %89
  call void @_ZN9benchmark5State16StartKeepRunningEv(%"class.benchmark::State"* nonnull %0) #10, !dbg !4405
  br label %93, !dbg !4406

; <label>:93:                                     ; preds = %92, %89
  %94 = load i64, i64* %48, align 8, !dbg !4407, !tbaa !3705
  %95 = add i64 %94, 1, !dbg !4407
  store i64 %95, i64* %48, align 8, !dbg !4407, !tbaa !3705
  %96 = load i64, i64* %49, align 8, !dbg !4408, !tbaa !3707
  %97 = icmp ult i64 %94, %96, !dbg !4409
  br i1 %97, label %98, label %108, !dbg !4410, !prof !3700

; <label>:98:                                     ; preds = %93
  call void @llvm.lifetime.start.p0i8(i64 24, i8* nonnull %50) #10, !dbg !4411
  call void @llvm.dbg.value(metadata %"class.std::vector"* %5, i64 0, metadata !4304, metadata !2015), !dbg !4321
  call void @llvm.dbg.value(metadata %"class.std::vector"* %7, i64 0, metadata !4307, metadata !2015), !dbg !4412
  call void @llvm.dbg.value(metadata %"class.std::vector"* %7, i64 0, metadata !3711, metadata !2015) #10, !dbg !4413
  call void @llvm.dbg.value(metadata %"class.std::vector"* %5, i64 0, metadata !3714, metadata !2015) #10, !dbg !4415
  call void @llvm.dbg.value(metadata %"class.std::vector"* %5, i64 0, metadata !2039, metadata !2015) #10, !dbg !4416
  call void @llvm.dbg.value(metadata %"class.std::vector"* %7, i64 0, metadata !3718, metadata !2015) #10, !dbg !4418
  call void @llvm.dbg.value(metadata i64 %51, i64 0, metadata !3721, metadata !2015) #10, !dbg !4420
  call void @llvm.dbg.value(metadata %"class.std::allocator"* undef, i64 0, metadata !3722, metadata !2015) #10, !dbg !4421
  call void @llvm.dbg.value(metadata %"class.std::vector"* %7, i64 0, metadata !4422, metadata !2015) #10, !dbg !4427
  call void @llvm.dbg.value(metadata %"class.std::allocator"* undef, i64 0, metadata !4425, metadata !2015) #10, !dbg !4429
  call void @llvm.memset.p0i8.i64(i8* nonnull %50, i8 0, i64 24, i32 8, i1 false) #10, !dbg !4486
  call void @llvm.dbg.value(metadata %"class.std::vector"* %7, i64 0, metadata !3727, metadata !2015) #10, !dbg !4430
  call void @llvm.dbg.value(metadata i64 %51, i64 0, metadata !3730, metadata !2015) #10, !dbg !4432
  call void @llvm.dbg.value(metadata %"class.std::vector"* %7, i64 0, metadata !2067, metadata !2015) #10, !dbg !4433
  call void @llvm.dbg.value(metadata i64 %51, i64 0, metadata !2064, metadata !2015) #10, !dbg !4435
  call void @llvm.dbg.value(metadata i64 %51, i64 0, metadata !2071, metadata !2015) #10, !dbg !4487
  call void @llvm.dbg.value(metadata i8* null, i64 0, metadata !2076, metadata !2015) #10, !dbg !4489
  %99 = call i8* @_Znwm(i64 %43) #10, !dbg !4491
  %100 = bitcast i8* %99 to i64*, !dbg !4492
  store i8* %99, i8** %78, align 8, !dbg !4466, !tbaa !2198
  store i8* %99, i8** %55, align 8, !dbg !4493, !tbaa !2205
  %101 = getelementptr inbounds i64, i64* %100, i64 %51, !dbg !4494
  store i64* %101, i64** %56, align 8, !dbg !4495, !tbaa !2208
  call void @llvm.dbg.value(metadata i64* %15, i64 0, metadata !3745, metadata !2015) #10, !dbg !4436
  call void @llvm.dbg.value(metadata i64** %16, i64 0, metadata !3738, metadata !2058) #10, !dbg !4438
  call void @llvm.dbg.declare(metadata %"class.__gnu_cxx::__normal_iterator.21"* undef, metadata !3745, metadata !2015) #10, !dbg !4436
  call void @llvm.dbg.declare(metadata %"class.__gnu_cxx::__normal_iterator.21"* undef, metadata !3738, metadata !2015) #10, !dbg !4438
  call void @llvm.dbg.value(metadata i64* %100, i64 0, metadata !3746, metadata !2015) #10, !dbg !4439
  call void @llvm.dbg.value(metadata i64* %15, i64 0, metadata !3759, metadata !2015) #10, !dbg !4440
  call void @llvm.dbg.value(metadata i64** %16, i64 0, metadata !3753, metadata !2058) #10, !dbg !4442
  call void @llvm.dbg.declare(metadata %"class.__gnu_cxx::__normal_iterator.21"* undef, metadata !3759, metadata !2015) #10, !dbg !4440
  call void @llvm.dbg.declare(metadata %"class.__gnu_cxx::__normal_iterator.21"* undef, metadata !3753, metadata !2015) #10, !dbg !4442
  call void @llvm.dbg.value(metadata i64* %100, i64 0, metadata !3760, metadata !2015) #10, !dbg !4443
  call void @llvm.dbg.value(metadata i64* %15, i64 0, metadata !3769, metadata !2015) #10, !dbg !4444
  call void @llvm.dbg.value(metadata i64** %16, i64 0, metadata !3765, metadata !2058) #10, !dbg !4446
  call void @llvm.dbg.declare(metadata %"class.__gnu_cxx::__normal_iterator.21"* undef, metadata !3769, metadata !2015) #10, !dbg !4444
  call void @llvm.dbg.declare(metadata %"class.__gnu_cxx::__normal_iterator.21"* undef, metadata !3765, metadata !2015) #10, !dbg !4446
  call void @llvm.dbg.value(metadata i64* %100, i64 0, metadata !3770, metadata !2015) #10, !dbg !4447
  call void @llvm.dbg.value(metadata i64* %15, i64 0, metadata !3780, metadata !2015) #10, !dbg !4448
  call void @llvm.dbg.value(metadata i64** %16, i64 0, metadata !3775, metadata !2058) #10, !dbg !4450
  call void @llvm.dbg.declare(metadata %"class.__gnu_cxx::__normal_iterator.21"* undef, metadata !3780, metadata !2015) #10, !dbg !4448
  call void @llvm.dbg.declare(metadata %"class.__gnu_cxx::__normal_iterator.21"* undef, metadata !3775, metadata !2015) #10, !dbg !4450
  call void @llvm.dbg.value(metadata i64* %100, i64 0, metadata !3781, metadata !2015) #10, !dbg !4451
  call void @llvm.dbg.value(metadata i64* %15, i64 0, metadata !3792, metadata !2015) #10, !dbg !4452
  call void @llvm.dbg.value(metadata i64** %16, i64 0, metadata !3786, metadata !2058) #10, !dbg !4454
  call void @llvm.dbg.declare(metadata %"class.__gnu_cxx::__normal_iterator.21"* undef, metadata !3792, metadata !2015) #10, !dbg !4452
  call void @llvm.dbg.declare(metadata %"class.__gnu_cxx::__normal_iterator.21"* undef, metadata !3786, metadata !2015) #10, !dbg !4454
  call void @llvm.dbg.value(metadata i64* %100, i64 0, metadata !3793, metadata !2015) #10, !dbg !4455
  call void @llvm.dbg.value(metadata i64* %15, i64 0, metadata !3803, metadata !2015) #10, !dbg !4456
  call void @llvm.dbg.value(metadata i64** %16, i64 0, metadata !3798, metadata !2058) #10, !dbg !4458
  call void @llvm.dbg.value(metadata i64* %100, i64 0, metadata !3804, metadata !2015) #10, !dbg !4459
  call void @llvm.dbg.value(metadata i8 1, i64 0, metadata !3805, metadata !2015) #10, !dbg !4460
  call void @llvm.dbg.value(metadata i64* %15, i64 0, metadata !3817, metadata !2015) #10, !dbg !4461
  call void @llvm.dbg.value(metadata i64** %16, i64 0, metadata !3810, metadata !2058) #10, !dbg !4463
  call void @llvm.dbg.value(metadata i64* %100, i64 0, metadata !3818, metadata !2015) #10, !dbg !4464
  call void @llvm.dbg.value(metadata i64 %51, i64 0, metadata !3819, metadata !2015) #10, !dbg !4465
  call void @llvm.memmove.p0i8.p0i8.i64(i8* nonnull %99, i8* %57, i64 %43, i32 8, i1 false) #10, !dbg !4496
  store i64* %101, i64** %54, align 8, !dbg !4467, !tbaa !2205
  call void @llvm.dbg.value(metadata %"class.std::vector"* %7, i64 0, metadata !4307, metadata !2015), !dbg !4412
  call void @_Z9quickSortRSt6vectorIlSaIlEEii(%"class.std::vector"* nonnull dereferenceable(24) %7, i32 0, i32 %46), !dbg !4468
  call void @llvm.dbg.value(metadata %"class.std::vector"* %7, i64 0, metadata !4307, metadata !2015), !dbg !4412
  call void @llvm.dbg.value(metadata %"class.std::vector"* %7, i64 0, metadata !3824, metadata !2015) #10, !dbg !4469
  call void @llvm.dbg.value(metadata %"class.std::vector"* %7, i64 0, metadata !3829, metadata !2015) #10, !dbg !4471
  %102 = load i64*, i64** %53, align 8, !dbg !4473, !tbaa !2198
  call void @llvm.dbg.value(metadata %"class.std::vector"* %7, i64 0, metadata !2193, metadata !2015) #10, !dbg !4474
  call void @llvm.dbg.value(metadata i64* %102, i64 0, metadata !2190, metadata !2015) #10, !dbg !4476
  %103 = icmp eq i64* %102, null, !dbg !4477
  br i1 %103, label %106, label %104, !dbg !4478

; <label>:104:                                    ; preds = %98
  call void @llvm.dbg.value(metadata i64* %102, i64 0, metadata !2410, metadata !2015) #10, !dbg !4479
  %105 = bitcast i64* %102 to i8*, !dbg !4481
  call void @_ZdlPv(i8* %105) #10, !dbg !4482
  br label %106, !dbg !4483

; <label>:106:                                    ; preds = %98, %104
  call void @llvm.lifetime.end.p0i8(i64 24, i8* nonnull %50) #10, !dbg !4484
  br label %89, !dbg !4400, !llvm.loop !4485

; <label>:107:                                    ; preds = %64
  br label %109, !dbg !4497

; <label>:108:                                    ; preds = %93
  br label %109, !dbg !4497

; <label>:109:                                    ; preds = %108, %107, %83
  call void @_ZN9benchmark5State17FinishKeepRunningEv(%"class.benchmark::State"* nonnull %0) #10, !dbg !4497
  call void @llvm.lifetime.end.p0i8(i64 8, i8* nonnull %12) #10, !dbg !4498
  call void @llvm.dbg.value(metadata %"class.std::vector"* %5, i64 0, metadata !4304, metadata !2015), !dbg !4321
  call void @llvm.dbg.value(metadata %"class.std::vector"* %5, i64 0, metadata !3824, metadata !2015) #10, !dbg !4499
  call void @llvm.dbg.value(metadata %"class.std::vector"* %5, i64 0, metadata !3829, metadata !2015) #10, !dbg !4501
  call void @llvm.dbg.value(metadata %"class.std::vector"* %5, i64 0, metadata !2193, metadata !2015) #10, !dbg !4503
  call void @llvm.dbg.value(metadata i64* %15, i64 0, metadata !2190, metadata !2015) #10, !dbg !4505
  %110 = icmp eq i64* %15, null, !dbg !4506
  br i1 %110, label %112, label %111, !dbg !4507

; <label>:111:                                    ; preds = %109
  call void @llvm.dbg.value(metadata i64* %15, i64 0, metadata !2410, metadata !2015) #10, !dbg !4508
  call void @_ZdlPv(i8* %57) #10, !dbg !4510
  br label %112, !dbg !4511

; <label>:112:                                    ; preds = %109, %111
  call void @llvm.lifetime.end.p0i8(i64 24, i8* nonnull %8) #10, !dbg !4498
  ret void, !dbg !4498
}

; Function Attrs: nounwind uwtable
define i32 @_Z10partition2RSt6vectorIlSaIlEEii(%"class.std::vector"* nocapture readonly dereferenceable(24), i32, i32) local_unnamed_addr #1 !dbg !4512 {
  tail call void @llvm.dbg.value(metadata %"class.std::vector"* %0, i64 0, metadata !4514, metadata !2015), !dbg !4520
  tail call void @llvm.dbg.value(metadata i32 %1, i64 0, metadata !4515, metadata !2015), !dbg !4521
  tail call void @llvm.dbg.value(metadata i32 %2, i64 0, metadata !4516, metadata !2015), !dbg !4522
  %4 = sext i32 %2 to i64, !dbg !4523
  tail call void @llvm.dbg.value(metadata %"class.std::vector"* %0, i64 0, metadata !4154, metadata !2015), !dbg !4524
  tail call void @llvm.dbg.value(metadata i64 %4, i64 0, metadata !4157, metadata !2015), !dbg !4526
  %5 = getelementptr inbounds %"class.std::vector", %"class.std::vector"* %0, i64 0, i32 0, i32 0, i32 0, !dbg !4527
  %6 = load i64*, i64** %5, align 8, !dbg !4527, !tbaa !2198
  %7 = getelementptr inbounds i64, i64* %6, i64 %4, !dbg !4528
  %8 = load i64, i64* %7, align 8, !dbg !4529, !tbaa !2276
  %9 = add nsw i32 %1, -1, !dbg !4530
  tail call void @llvm.dbg.value(metadata i32 %9, i64 0, metadata !4518, metadata !2015), !dbg !4531
  %10 = add nsw i32 %2, 1, !dbg !4532
  tail call void @llvm.dbg.value(metadata i32 %10, i64 0, metadata !4519, metadata !2015), !dbg !4533
  %11 = shl i64 %8, 32
  %12 = ashr exact i64 %11, 32
  br label %13, !dbg !4534

; <label>:13:                                     ; preds = %36, %3
  %14 = phi i32 [ %9, %3 ], [ %32, %36 ]
  %15 = phi i32 [ %10, %3 ], [ %33, %36 ]
  tail call void @llvm.dbg.value(metadata i32 %15, i64 0, metadata !4519, metadata !2015), !dbg !4533
  tail call void @llvm.dbg.value(metadata i32 %14, i64 0, metadata !4518, metadata !2015), !dbg !4531
  %16 = sext i32 %14 to i64, !dbg !4535
  br label %17, !dbg !4535, !llvm.loop !4539

; <label>:17:                                     ; preds = %17, %13
  %18 = phi i64 [ %19, %17 ], [ %16, %13 ]
  tail call void @llvm.dbg.value(metadata i32 undef, i64 0, metadata !4518, metadata !2015), !dbg !4531
  %19 = add nsw i64 %18, 1, !dbg !4541
  tail call void @llvm.dbg.value(metadata %"class.std::vector"* %0, i64 0, metadata !4154, metadata !2015), !dbg !4543
  tail call void @llvm.dbg.value(metadata i64 %19, i64 0, metadata !4157, metadata !2015), !dbg !4545
  %20 = getelementptr inbounds i64, i64* %6, i64 %19, !dbg !4546
  %21 = load i64, i64* %20, align 8, !dbg !4547, !tbaa !2276
  %22 = icmp slt i64 %21, %12, !dbg !4548
  br i1 %22, label %17, label %23, !dbg !4549, !llvm.loop !4550

; <label>:23:                                     ; preds = %17
  %24 = sext i32 %15 to i64, !dbg !4553
  br label %25, !dbg !4553

; <label>:25:                                     ; preds = %23, %25
  %26 = phi i64 [ %24, %23 ], [ %27, %25 ]
  tail call void @llvm.dbg.value(metadata i32 undef, i64 0, metadata !4519, metadata !2015), !dbg !4533
  %27 = add nsw i64 %26, -1, !dbg !4553
  tail call void @llvm.dbg.value(metadata %"class.std::vector"* %0, i64 0, metadata !4154, metadata !2015), !dbg !4555
  tail call void @llvm.dbg.value(metadata i64 %27, i64 0, metadata !4157, metadata !2015), !dbg !4557
  %28 = getelementptr inbounds i64, i64* %6, i64 %27, !dbg !4558
  %29 = load i64, i64* %28, align 8, !dbg !4559, !tbaa !2276
  %30 = icmp sgt i64 %29, %12, !dbg !4560
  br i1 %30, label %25, label %31, !dbg !4561, !llvm.loop !4550

; <label>:31:                                     ; preds = %25
  %32 = trunc i64 %19 to i32, !dbg !4553
  %33 = trunc i64 %27 to i32, !dbg !4562
  %34 = icmp slt i32 %32, %33, !dbg !4562
  br i1 %34, label %36, label %35, !dbg !4564

; <label>:35:                                     ; preds = %31
  ret i32 %33, !dbg !4565

; <label>:36:                                     ; preds = %31
  tail call void @llvm.dbg.value(metadata %"class.std::vector"* %0, i64 0, metadata !4154, metadata !2015), !dbg !4566
  tail call void @llvm.dbg.value(metadata i64 %19, i64 0, metadata !4157, metadata !2015), !dbg !4568
  tail call void @llvm.dbg.value(metadata %"class.std::vector"* %0, i64 0, metadata !4154, metadata !2015), !dbg !4569
  tail call void @llvm.dbg.value(metadata i64 %27, i64 0, metadata !4157, metadata !2015), !dbg !4571
  tail call void @llvm.dbg.value(metadata i64* %20, i64 0, metadata !3880, metadata !2015), !dbg !4572
  tail call void @llvm.dbg.value(metadata i64* %28, i64 0, metadata !3886, metadata !2015), !dbg !4574
  tail call void @llvm.dbg.value(metadata i64 %21, i64 0, metadata !3887, metadata !2015), !dbg !4575
  store i64 %29, i64* %20, align 8, !dbg !4576, !tbaa !2276
  store i64 %21, i64* %28, align 8, !dbg !4577, !tbaa !2276
  br label %13, !dbg !4578, !llvm.loop !4579
}

; Function Attrs: nounwind uwtable
define void @_Z10quickSort2RSt6vectorIlSaIlEEii(%"class.std::vector"* readonly dereferenceable(24), i32, i32) local_unnamed_addr #1 !dbg !4582 {
  tail call void @llvm.dbg.value(metadata %"class.std::vector"* %0, i64 0, metadata !4584, metadata !2015), !dbg !4588
  tail call void @llvm.dbg.value(metadata i32 %1, i64 0, metadata !4585, metadata !2015), !dbg !4589
  tail call void @llvm.dbg.value(metadata i32 %2, i64 0, metadata !4586, metadata !2015), !dbg !4590
  %4 = icmp sgt i32 %2, %1, !dbg !4591
  br i1 %4, label %5, label %44, !dbg !4593

; <label>:5:                                      ; preds = %3
  %6 = sext i32 %2 to i64
  %7 = getelementptr inbounds %"class.std::vector", %"class.std::vector"* %0, i64 0, i32 0, i32 0, i32 0
  %8 = add nsw i32 %2, 1
  br label %9, !dbg !4593

; <label>:9:                                      ; preds = %5, %40
  %10 = phi i32 [ %1, %5 ], [ %37, %40 ]
  tail call void @llvm.dbg.value(metadata %"class.std::vector"* %0, i64 0, metadata !4514, metadata !2015), !dbg !4594
  tail call void @llvm.dbg.value(metadata i32 %10, i64 0, metadata !4515, metadata !2015), !dbg !4596
  tail call void @llvm.dbg.value(metadata i32 %2, i64 0, metadata !4516, metadata !2015), !dbg !4597
  tail call void @llvm.dbg.value(metadata i32 %10, i64 0, metadata !4585, metadata !2015), !dbg !4589
  tail call void @llvm.dbg.value(metadata %"class.std::vector"* %0, i64 0, metadata !4154, metadata !2015), !dbg !4598
  tail call void @llvm.dbg.value(metadata i64 %6, i64 0, metadata !4157, metadata !2015), !dbg !4600
  %11 = load i64*, i64** %7, align 8, !dbg !4601, !tbaa !2198
  %12 = getelementptr inbounds i64, i64* %11, i64 %6, !dbg !4602
  %13 = load i64, i64* %12, align 8, !dbg !4603, !tbaa !2276
  %14 = add nsw i32 %10, -1, !dbg !4604
  tail call void @llvm.dbg.value(metadata i32 %14, i64 0, metadata !4518, metadata !2015), !dbg !4605
  tail call void @llvm.dbg.value(metadata i32 %8, i64 0, metadata !4519, metadata !2015), !dbg !4606
  %15 = shl i64 %13, 32
  %16 = ashr exact i64 %15, 32
  br label %17, !dbg !4607

; <label>:17:                                     ; preds = %39, %9
  %18 = phi i32 [ %14, %9 ], [ %36, %39 ]
  %19 = phi i32 [ %8, %9 ], [ %37, %39 ]
  tail call void @llvm.dbg.value(metadata i32 %19, i64 0, metadata !4519, metadata !2015), !dbg !4606
  tail call void @llvm.dbg.value(metadata i32 %18, i64 0, metadata !4518, metadata !2015), !dbg !4605
  %20 = sext i32 %18 to i64, !dbg !4608
  br label %21, !dbg !4608, !llvm.loop !4539

; <label>:21:                                     ; preds = %21, %17
  %22 = phi i64 [ %23, %21 ], [ %20, %17 ]
  tail call void @llvm.dbg.value(metadata i32 undef, i64 0, metadata !4518, metadata !2015), !dbg !4605
  %23 = add nsw i64 %22, 1, !dbg !4609
  tail call void @llvm.dbg.value(metadata %"class.std::vector"* %0, i64 0, metadata !4154, metadata !2015), !dbg !4610
  tail call void @llvm.dbg.value(metadata i64 %23, i64 0, metadata !4157, metadata !2015), !dbg !4612
  %24 = getelementptr inbounds i64, i64* %11, i64 %23, !dbg !4613
  %25 = load i64, i64* %24, align 8, !dbg !4614, !tbaa !2276
  %26 = icmp slt i64 %25, %16, !dbg !4615
  br i1 %26, label %21, label %27, !dbg !4616, !llvm.loop !4550

; <label>:27:                                     ; preds = %21
  %28 = sext i32 %19 to i64, !dbg !4617
  br label %29, !dbg !4617

; <label>:29:                                     ; preds = %29, %27
  %30 = phi i64 [ %28, %27 ], [ %31, %29 ]
  tail call void @llvm.dbg.value(metadata i32 undef, i64 0, metadata !4519, metadata !2015), !dbg !4606
  %31 = add nsw i64 %30, -1, !dbg !4617
  tail call void @llvm.dbg.value(metadata %"class.std::vector"* %0, i64 0, metadata !4154, metadata !2015), !dbg !4618
  tail call void @llvm.dbg.value(metadata i64 %31, i64 0, metadata !4157, metadata !2015), !dbg !4620
  %32 = getelementptr inbounds i64, i64* %11, i64 %31, !dbg !4621
  %33 = load i64, i64* %32, align 8, !dbg !4622, !tbaa !2276
  %34 = icmp sgt i64 %33, %16, !dbg !4623
  br i1 %34, label %29, label %35, !dbg !4624, !llvm.loop !4550

; <label>:35:                                     ; preds = %29
  %36 = trunc i64 %23 to i32, !dbg !4617
  %37 = trunc i64 %31 to i32, !dbg !4625
  %38 = icmp slt i32 %36, %37, !dbg !4625
  br i1 %38, label %39, label %40, !dbg !4626

; <label>:39:                                     ; preds = %35
  tail call void @llvm.dbg.value(metadata %"class.std::vector"* %0, i64 0, metadata !4154, metadata !2015), !dbg !4627
  tail call void @llvm.dbg.value(metadata i64 %23, i64 0, metadata !4157, metadata !2015), !dbg !4629
  tail call void @llvm.dbg.value(metadata %"class.std::vector"* %0, i64 0, metadata !4154, metadata !2015), !dbg !4630
  tail call void @llvm.dbg.value(metadata i64 %31, i64 0, metadata !4157, metadata !2015), !dbg !4632
  tail call void @llvm.dbg.value(metadata i64* %24, i64 0, metadata !3880, metadata !2015), !dbg !4633
  tail call void @llvm.dbg.value(metadata i64* %32, i64 0, metadata !3886, metadata !2015), !dbg !4635
  tail call void @llvm.dbg.value(metadata i64 %25, i64 0, metadata !3887, metadata !2015), !dbg !4636
  store i64 %33, i64* %24, align 8, !dbg !4637, !tbaa !2276
  store i64 %25, i64* %32, align 8, !dbg !4638, !tbaa !2276
  br label %17, !dbg !4639, !llvm.loop !4579

; <label>:40:                                     ; preds = %35
  tail call void @llvm.dbg.value(metadata i32 %37, i64 0, metadata !4587, metadata !2015), !dbg !4640
  %41 = add nsw i32 %37, -1, !dbg !4641
  tail call void @_Z10quickSort2RSt6vectorIlSaIlEEii(%"class.std::vector"* nonnull dereferenceable(24) %0, i32 %10, i32 %41), !dbg !4642
  tail call void @llvm.dbg.value(metadata %"class.std::vector"* %0, i64 0, metadata !4584, metadata !2015), !dbg !4588
  tail call void @llvm.dbg.value(metadata i32 %37, i64 0, metadata !4585, metadata !2015), !dbg !4589
  tail call void @llvm.dbg.value(metadata i32 %2, i64 0, metadata !4586, metadata !2015), !dbg !4590
  %42 = icmp slt i32 %37, %2, !dbg !4591
  br i1 %42, label %9, label %43, !dbg !4593

; <label>:43:                                     ; preds = %40
  br label %44, !dbg !4643

; <label>:44:                                     ; preds = %43, %3
  ret void, !dbg !4643
}

; Function Attrs: nounwind uwtable
define void @_Z13BM_quickSort2RN9benchmark5StateE(%"class.benchmark::State"* dereferenceable(144)) local_unnamed_addr #1 !dbg !4644 {
  %2 = alloca <2 x i64>, align 16
  %3 = bitcast <2 x i64>* %2 to %"class.std::uniform_int_distribution"*
  %4 = alloca %"struct.std::uniform_int_distribution<unsigned long>::param_type", align 8
  %5 = alloca %"class.std::vector", align 8
  %6 = alloca %"class.std::linear_congruential_engine", align 8
  %7 = alloca %"class.std::vector", align 8
  tail call void @llvm.dbg.value(metadata %"class.benchmark::State"* %0, i64 0, metadata !4646, metadata !2015), !dbg !4654
  %8 = bitcast %"class.std::vector"* %5 to i8*, !dbg !4655
  call void @llvm.lifetime.start.p0i8(i64 24, i8* nonnull %8) #10, !dbg !4655
  tail call void @llvm.dbg.value(metadata %"class.benchmark::State"* %0, i64 0, metadata !3554, metadata !2015), !dbg !4656
  tail call void @llvm.dbg.value(metadata i64 0, i64 0, metadata !3557, metadata !2015), !dbg !4658
  tail call void @llvm.dbg.value(metadata %"class.benchmark::State"* %0, i64 0, metadata !3562, metadata !3567), !dbg !4659
  tail call void @llvm.dbg.value(metadata i64 0, i64 0, metadata !3565, metadata !2015), !dbg !4661
  %9 = getelementptr inbounds %"class.benchmark::State", %"class.benchmark::State"* %0, i64 0, i32 3, i32 0, i32 0, i32 0, !dbg !4662
  %10 = load i32*, i32** %9, align 8, !dbg !4662, !tbaa !3572
  %11 = load i32, i32* %10, align 4, !dbg !4663, !tbaa !3576
  tail call void @llvm.dbg.value(metadata %"class.std::vector"* %5, i64 0, metadata !4647, metadata !2015), !dbg !4664
  call void @_Z5rangei(%"class.std::vector"* nonnull sret %5, i32 %11), !dbg !4665
  %12 = bitcast %"class.std::linear_congruential_engine"* %6 to i8*, !dbg !4666
  call void @llvm.lifetime.start.p0i8(i64 8, i8* nonnull %12) #10, !dbg !4666
  tail call void @llvm.dbg.value(metadata %"class.std::linear_congruential_engine"* %6, i64 0, metadata !4648, metadata !2015), !dbg !4667
  %13 = getelementptr inbounds %"class.std::linear_congruential_engine", %"class.std::linear_congruential_engine"* %6, i64 0, i32 0
  store i64 200, i64* %13, align 8, !tbaa !3582
  tail call void @llvm.dbg.value(metadata %"class.std::vector"* %5, i64 0, metadata !4647, metadata !2015), !dbg !4664
  tail call void @llvm.dbg.value(metadata %"class.std::vector"* %5, i64 0, metadata !3584, metadata !2015), !dbg !4668
  tail call void @llvm.dbg.value(metadata %"class.__gnu_cxx::__normal_iterator"* undef, i64 0, metadata !3589, metadata !2015), !dbg !4670
  tail call void @llvm.dbg.value(metadata %"class.std::vector"* %5, i64 0, metadata !3592, metadata !2015), !dbg !4672
  %14 = getelementptr inbounds %"class.std::vector", %"class.std::vector"* %5, i64 0, i32 0, i32 0, i32 0, !dbg !4673
  %15 = load i64*, i64** %14, align 8, !dbg !4673, !tbaa !2418
  tail call void @llvm.dbg.value(metadata %"class.std::vector"* %5, i64 0, metadata !4647, metadata !2015), !dbg !4664
  tail call void @llvm.dbg.value(metadata %"class.std::vector"* %5, i64 0, metadata !3598, metadata !2015), !dbg !4674
  %16 = getelementptr inbounds %"class.std::vector", %"class.std::vector"* %5, i64 0, i32 0, i32 0, i32 1, !dbg !4676
  tail call void @llvm.dbg.value(metadata %"class.__gnu_cxx::__normal_iterator"* undef, i64 0, metadata !3589, metadata !2015), !dbg !4677
  tail call void @llvm.dbg.value(metadata i64** %16, i64 0, metadata !3592, metadata !2015), !dbg !4679
  %17 = load i64*, i64** %16, align 8, !dbg !4680, !tbaa !2418
  tail call void @llvm.dbg.value(metadata %"class.std::linear_congruential_engine"* %6, i64 0, metadata !4648, metadata !2015), !dbg !4667
  %18 = ptrtoint i64* %15 to i64
  tail call void @llvm.dbg.value(metadata %"class.std::linear_congruential_engine"* %6, i64 0, metadata !3608, metadata !2015) #10, !dbg !4681
  tail call void @llvm.dbg.value(metadata %"class.__gnu_cxx::__normal_iterator"* undef, i64 0, metadata !3615, metadata !2015) #10, !dbg !4683
  tail call void @llvm.dbg.value(metadata %"class.__gnu_cxx::__normal_iterator"* undef, i64 0, metadata !3616, metadata !2015) #10, !dbg !4684
  tail call void @llvm.dbg.value(metadata %"class.__gnu_cxx::__normal_iterator"* undef, i64 0, metadata !3625, metadata !2015) #10, !dbg !4685
  tail call void @llvm.dbg.value(metadata %"class.__gnu_cxx::__normal_iterator"* undef, i64 0, metadata !3631, metadata !2015) #10, !dbg !4687
  %19 = icmp eq i64* %15, %17, !dbg !4688
  %20 = ptrtoint i64* %17 to i64, !dbg !4689
  br i1 %19, label %42, label %21, !dbg !4689

; <label>:21:                                     ; preds = %1
  %22 = bitcast <2 x i64>* %2 to i8*, !dbg !4690
  call void @llvm.lifetime.start.p0i8(i64 16, i8* nonnull %22) #10, !dbg !4690
  tail call void @llvm.dbg.value(metadata %"class.std::uniform_int_distribution"* %3, i64 0, metadata !3617, metadata !2015) #10, !dbg !4691
  tail call void @llvm.dbg.value(metadata %"class.std::uniform_int_distribution"* %3, i64 0, metadata !3640, metadata !2015) #10, !dbg !4692
  tail call void @llvm.dbg.value(metadata i64 0, i64 0, metadata !3643, metadata !2015) #10, !dbg !4694
  tail call void @llvm.dbg.value(metadata i64 -1, i64 0, metadata !3644, metadata !2015) #10, !dbg !4695
  tail call void @llvm.dbg.value(metadata %"class.std::uniform_int_distribution"* %3, i64 0, metadata !3649, metadata !2015) #10, !dbg !4696
  tail call void @llvm.dbg.value(metadata i64 0, i64 0, metadata !3652, metadata !2015) #10, !dbg !4698
  tail call void @llvm.dbg.value(metadata i64 -1, i64 0, metadata !3653, metadata !2015) #10, !dbg !4699
  store <2 x i64> <i64 0, i64 -1>, <2 x i64>* %2, align 16, !dbg !4700, !tbaa !2276
  tail call void @llvm.dbg.value(metadata %"class.__gnu_cxx::__normal_iterator"* undef, i64 0, metadata !3615, metadata !2015) #10, !dbg !4683
  tail call void @llvm.dbg.value(metadata %"class.__gnu_cxx::__normal_iterator"* undef, i64 0, metadata !3660, metadata !2015) #10, !dbg !4701
  %23 = getelementptr inbounds i64, i64* %15, i64 1
  tail call void @llvm.dbg.value(metadata %"class.__gnu_cxx::__normal_iterator"* undef, i64 0, metadata !3616, metadata !2015) #10, !dbg !4684
  tail call void @llvm.dbg.value(metadata %"class.__gnu_cxx::__normal_iterator"* undef, i64 0, metadata !3619, metadata !2015) #10, !dbg !4703
  tail call void @llvm.dbg.value(metadata %"class.__gnu_cxx::__normal_iterator"* undef, i64 0, metadata !3668, metadata !2015) #10, !dbg !4704
  tail call void @llvm.dbg.value(metadata %"class.__gnu_cxx::__normal_iterator"* undef, i64 0, metadata !3671, metadata !2015) #10, !dbg !4706
  %24 = icmp eq i64* %23, %17, !dbg !4707
  br i1 %24, label %30, label %25, !dbg !4708

; <label>:25:                                     ; preds = %21
  %26 = bitcast %"struct.std::uniform_int_distribution<unsigned long>::param_type"* %4 to i8*
  %27 = getelementptr inbounds %"struct.std::uniform_int_distribution<unsigned long>::param_type", %"struct.std::uniform_int_distribution<unsigned long>::param_type"* %4, i64 0, i32 0
  %28 = getelementptr inbounds %"struct.std::uniform_int_distribution<unsigned long>::param_type", %"struct.std::uniform_int_distribution<unsigned long>::param_type"* %4, i64 0, i32 1
  br label %31, !dbg !4708

; <label>:29:                                     ; preds = %31
  br label %30, !dbg !4709

; <label>:30:                                     ; preds = %29, %21
  call void @llvm.lifetime.end.p0i8(i64 16, i8* nonnull %22) #10, !dbg !4709
  br label %42, !dbg !4709

; <label>:31:                                     ; preds = %31, %25
  %32 = phi i64* [ %23, %25 ], [ %40, %31 ]
  %33 = ptrtoint i64* %32 to i64
  call void @llvm.lifetime.start.p0i8(i64 16, i8* nonnull %26) #10, !dbg !4710
  call void @llvm.dbg.value(metadata %"class.__gnu_cxx::__normal_iterator"* undef, i64 0, metadata !3615, metadata !2015) #10, !dbg !4683
  call void @llvm.dbg.value(metadata %"class.__gnu_cxx::__normal_iterator"* undef, i64 0, metadata !3619, metadata !2015) #10, !dbg !4703
  call void @llvm.dbg.value(metadata %"class.__gnu_cxx::__normal_iterator"* undef, i64 0, metadata !3845, metadata !2015) #10, !dbg !4711
  call void @llvm.dbg.value(metadata %"class.__gnu_cxx::__normal_iterator"* undef, i64 0, metadata !3850, metadata !2015) #10, !dbg !4713
  %34 = sub i64 %33, %18, !dbg !4714
  %35 = ashr exact i64 %34, 3, !dbg !4714
  call void @llvm.dbg.value(metadata %"struct.std::uniform_int_distribution<unsigned long>::param_type"* %4, i64 0, metadata !3649, metadata !2015) #10, !dbg !4715
  call void @llvm.dbg.value(metadata i64 0, i64 0, metadata !3652, metadata !2015) #10, !dbg !4717
  call void @llvm.dbg.value(metadata i64 %35, i64 0, metadata !3653, metadata !2015) #10, !dbg !4718
  store i64 0, i64* %27, align 8, !dbg !4719, !tbaa !3860
  store i64 %35, i64* %28, align 8, !dbg !4720, !tbaa !3863
  call void @llvm.dbg.value(metadata %"class.std::uniform_int_distribution"* %3, i64 0, metadata !3617, metadata !2015) #10, !dbg !4691
  %36 = call i64 @_ZNSt24uniform_int_distributionImEclISt26linear_congruential_engineImLm48271ELm0ELm2147483647EEEEmRT_RKNS0_10param_typeE(%"class.std::uniform_int_distribution"* nonnull %3, %"class.std::linear_congruential_engine"* nonnull dereferenceable(8) %6, %"struct.std::uniform_int_distribution<unsigned long>::param_type"* nonnull dereferenceable(16) %4) #10, !dbg !4721
  call void @llvm.dbg.value(metadata %"class.__gnu_cxx::__normal_iterator"* undef, i64 0, metadata !3615, metadata !2015) #10, !dbg !4683
  call void @llvm.dbg.value(metadata %"class.__gnu_cxx::__normal_iterator"* undef, i64 0, metadata !3660, metadata !2015) #10, !dbg !4722
  %37 = getelementptr inbounds i64, i64* %15, i64 %36, !dbg !4724
  call void @llvm.dbg.value(metadata %"class.__gnu_cxx::__normal_iterator"* undef, i64 0, metadata !3868, metadata !2015) #10, !dbg !4725
  call void @llvm.dbg.value(metadata %"class.__gnu_cxx::__normal_iterator"* undef, i64 0, metadata !3876, metadata !2015) #10, !dbg !4727
  call void @llvm.dbg.value(metadata i64* %32, i64 0, metadata !3880, metadata !2015) #10, !dbg !4728
  call void @llvm.dbg.value(metadata i64* %37, i64 0, metadata !3886, metadata !2015) #10, !dbg !4730
  %38 = load i64, i64* %32, align 8, !dbg !4731, !tbaa !2276
  call void @llvm.dbg.value(metadata i64 %38, i64 0, metadata !3887, metadata !2015) #10, !dbg !4732
  %39 = load i64, i64* %37, align 8, !dbg !4733, !tbaa !2276
  store i64 %39, i64* %32, align 8, !dbg !4734, !tbaa !2276
  store i64 %38, i64* %37, align 8, !dbg !4735, !tbaa !2276
  call void @llvm.lifetime.end.p0i8(i64 16, i8* nonnull %26) #10, !dbg !4736
  call void @llvm.dbg.value(metadata %"class.__gnu_cxx::__normal_iterator"* undef, i64 0, metadata !3619, metadata !2015) #10, !dbg !4703
  %40 = getelementptr inbounds i64, i64* %32, i64 1
  call void @llvm.dbg.value(metadata %"class.__gnu_cxx::__normal_iterator"* undef, i64 0, metadata !3616, metadata !2015) #10, !dbg !4684
  call void @llvm.dbg.value(metadata %"class.__gnu_cxx::__normal_iterator"* undef, i64 0, metadata !3619, metadata !2015) #10, !dbg !4703
  call void @llvm.dbg.value(metadata %"class.__gnu_cxx::__normal_iterator"* undef, i64 0, metadata !3668, metadata !2015) #10, !dbg !4704
  call void @llvm.dbg.value(metadata %"class.__gnu_cxx::__normal_iterator"* undef, i64 0, metadata !3671, metadata !2015) #10, !dbg !4706
  %41 = icmp eq i64* %40, %17, !dbg !4707
  br i1 %41, label %29, label %31, !dbg !4708, !llvm.loop !3897

; <label>:42:                                     ; preds = %1, %30
  call void @llvm.dbg.value(metadata %"class.std::vector"* %5, i64 0, metadata !4647, metadata !2015), !dbg !4664
  tail call void @llvm.dbg.value(metadata %"class.std::vector"* %5, i64 0, metadata !2039, metadata !2015), !dbg !4737
  %43 = sub i64 %20, %18, !dbg !4739
  %44 = lshr exact i64 %43, 3, !dbg !4739
  %45 = add nuw nsw i64 %44, 4294967295, !dbg !4740
  %46 = trunc i64 %45 to i32, !dbg !4741
  call void @llvm.dbg.value(metadata i32 %46, i64 0, metadata !4649, metadata !2015), !dbg !4742
  %47 = getelementptr inbounds %"class.benchmark::State", %"class.benchmark::State"* %0, i64 0, i32 0
  %48 = getelementptr inbounds %"class.benchmark::State", %"class.benchmark::State"* %0, i64 0, i32 2
  %49 = getelementptr inbounds %"class.benchmark::State", %"class.benchmark::State"* %0, i64 0, i32 11
  %50 = bitcast %"class.std::vector"* %7 to i8*
  %51 = ashr exact i64 %43, 3
  %52 = icmp eq i64 %51, 0
  %53 = getelementptr inbounds %"class.std::vector", %"class.std::vector"* %7, i64 0, i32 0, i32 0, i32 0
  %54 = getelementptr inbounds %"class.std::vector", %"class.std::vector"* %7, i64 0, i32 0, i32 0, i32 1
  %55 = bitcast i64** %54 to i8**
  %56 = getelementptr inbounds %"class.std::vector", %"class.std::vector"* %7, i64 0, i32 0, i32 0, i32 2
  %57 = bitcast i64* %15 to i8*
  br i1 %52, label %58, label %75, !dbg !4743

; <label>:58:                                     ; preds = %42
  %59 = bitcast %"class.std::vector"* %7 to i8*
  br label %60, !dbg !4744

; <label>:60:                                     ; preds = %58, %74
  call void @llvm.dbg.value(metadata %"class.benchmark::State"* %0, i64 0, metadata !3683, metadata !2015) #10, !dbg !4746
  %61 = load i8, i8* %47, align 8, !dbg !4744, !tbaa !3688, !range !3698
  %62 = icmp eq i8 %61, 1, !dbg !4744
  br i1 %62, label %64, label %63, !dbg !4747, !prof !3700

; <label>:63:                                     ; preds = %60
  call void @_ZN9benchmark5State16StartKeepRunningEv(%"class.benchmark::State"* nonnull %0) #10, !dbg !4748
  br label %64, !dbg !4749

; <label>:64:                                     ; preds = %63, %60
  %65 = load i64, i64* %48, align 8, !dbg !4750, !tbaa !3705
  %66 = add i64 %65, 1, !dbg !4750
  store i64 %66, i64* %48, align 8, !dbg !4750, !tbaa !3705
  %67 = load i64, i64* %49, align 8, !dbg !4751, !tbaa !3707
  %68 = icmp ult i64 %65, %67, !dbg !4752
  br i1 %68, label %69, label %107, !dbg !4753, !prof !3700

; <label>:69:                                     ; preds = %64
  call void @llvm.lifetime.start.p0i8(i64 24, i8* nonnull %50) #10, !dbg !4754
  call void @llvm.dbg.value(metadata %"class.std::vector"* %5, i64 0, metadata !4647, metadata !2015), !dbg !4664
  call void @llvm.dbg.value(metadata %"class.std::vector"* %7, i64 0, metadata !4650, metadata !2015), !dbg !4755
  call void @llvm.dbg.value(metadata %"class.std::vector"* %7, i64 0, metadata !3711, metadata !2015) #10, !dbg !4756
  call void @llvm.dbg.value(metadata %"class.std::vector"* %5, i64 0, metadata !3714, metadata !2015) #10, !dbg !4758
  call void @llvm.dbg.value(metadata %"class.std::vector"* %5, i64 0, metadata !2039, metadata !2015) #10, !dbg !4759
  call void @llvm.dbg.value(metadata %"class.std::vector"* %7, i64 0, metadata !3718, metadata !2015) #10, !dbg !4761
  call void @llvm.dbg.value(metadata i64 %51, i64 0, metadata !3721, metadata !2015) #10, !dbg !4763
  call void @llvm.dbg.value(metadata %"class.std::allocator"* undef, i64 0, metadata !3722, metadata !2015) #10, !dbg !4764
  call void @llvm.dbg.value(metadata %"class.std::vector"* %7, i64 0, metadata !4422, metadata !2015) #10, !dbg !4765
  call void @llvm.dbg.value(metadata %"class.std::allocator"* undef, i64 0, metadata !4425, metadata !2015) #10, !dbg !4767
  call void @llvm.dbg.value(metadata %"class.std::vector"* %7, i64 0, metadata !3727, metadata !2015) #10, !dbg !4768
  call void @llvm.dbg.value(metadata i64 %51, i64 0, metadata !3730, metadata !2015) #10, !dbg !4770
  call void @llvm.dbg.value(metadata %"class.std::vector"* %7, i64 0, metadata !2067, metadata !2015) #10, !dbg !4771
  call void @llvm.dbg.value(metadata i64 %51, i64 0, metadata !2064, metadata !2015) #10, !dbg !4773
  call void @llvm.dbg.value(metadata i64* %15, i64 0, metadata !3745, metadata !2015) #10, !dbg !4774
  call void @llvm.dbg.value(metadata i64** %16, i64 0, metadata !3738, metadata !2058) #10, !dbg !4776
  call void @llvm.dbg.declare(metadata %"class.__gnu_cxx::__normal_iterator.21"* undef, metadata !3745, metadata !2015) #10, !dbg !4774
  call void @llvm.dbg.declare(metadata %"class.__gnu_cxx::__normal_iterator.21"* undef, metadata !3738, metadata !2015) #10, !dbg !4776
  call void @llvm.dbg.value(metadata i64* null, i64 0, metadata !3746, metadata !2015) #10, !dbg !4777
  call void @llvm.dbg.value(metadata i64* %15, i64 0, metadata !3759, metadata !2015) #10, !dbg !4778
  call void @llvm.dbg.value(metadata i64** %16, i64 0, metadata !3753, metadata !2058) #10, !dbg !4780
  call void @llvm.dbg.declare(metadata %"class.__gnu_cxx::__normal_iterator.21"* undef, metadata !3759, metadata !2015) #10, !dbg !4778
  call void @llvm.dbg.declare(metadata %"class.__gnu_cxx::__normal_iterator.21"* undef, metadata !3753, metadata !2015) #10, !dbg !4780
  call void @llvm.dbg.value(metadata i64* null, i64 0, metadata !3760, metadata !2015) #10, !dbg !4781
  call void @llvm.dbg.value(metadata i64* %15, i64 0, metadata !3769, metadata !2015) #10, !dbg !4782
  call void @llvm.dbg.value(metadata i64** %16, i64 0, metadata !3765, metadata !2058) #10, !dbg !4784
  call void @llvm.dbg.declare(metadata %"class.__gnu_cxx::__normal_iterator.21"* undef, metadata !3769, metadata !2015) #10, !dbg !4782
  call void @llvm.dbg.declare(metadata %"class.__gnu_cxx::__normal_iterator.21"* undef, metadata !3765, metadata !2015) #10, !dbg !4784
  call void @llvm.dbg.value(metadata i64* null, i64 0, metadata !3770, metadata !2015) #10, !dbg !4785
  call void @llvm.dbg.value(metadata i64* %15, i64 0, metadata !3780, metadata !2015) #10, !dbg !4786
  call void @llvm.dbg.value(metadata i64** %16, i64 0, metadata !3775, metadata !2058) #10, !dbg !4788
  call void @llvm.dbg.declare(metadata %"class.__gnu_cxx::__normal_iterator.21"* undef, metadata !3780, metadata !2015) #10, !dbg !4786
  call void @llvm.dbg.declare(metadata %"class.__gnu_cxx::__normal_iterator.21"* undef, metadata !3775, metadata !2015) #10, !dbg !4788
  call void @llvm.dbg.value(metadata i64* null, i64 0, metadata !3781, metadata !2015) #10, !dbg !4789
  call void @llvm.dbg.value(metadata i64* %15, i64 0, metadata !3792, metadata !2015) #10, !dbg !4790
  call void @llvm.dbg.value(metadata i64** %16, i64 0, metadata !3786, metadata !2058) #10, !dbg !4792
  call void @llvm.dbg.declare(metadata %"class.__gnu_cxx::__normal_iterator.21"* undef, metadata !3792, metadata !2015) #10, !dbg !4790
  call void @llvm.dbg.declare(metadata %"class.__gnu_cxx::__normal_iterator.21"* undef, metadata !3786, metadata !2015) #10, !dbg !4792
  call void @llvm.dbg.value(metadata i64* null, i64 0, metadata !3793, metadata !2015) #10, !dbg !4793
  call void @llvm.dbg.value(metadata i64* %15, i64 0, metadata !3803, metadata !2015) #10, !dbg !4794
  call void @llvm.dbg.value(metadata i64** %16, i64 0, metadata !3798, metadata !2058) #10, !dbg !4796
  call void @llvm.dbg.value(metadata i64* null, i64 0, metadata !3804, metadata !2015) #10, !dbg !4797
  call void @llvm.dbg.value(metadata i8 1, i64 0, metadata !3805, metadata !2015) #10, !dbg !4798
  call void @llvm.dbg.value(metadata i64* %15, i64 0, metadata !3817, metadata !2015) #10, !dbg !4799
  call void @llvm.dbg.value(metadata i64** %16, i64 0, metadata !3810, metadata !2058) #10, !dbg !4801
  call void @llvm.dbg.value(metadata i64* null, i64 0, metadata !3818, metadata !2015) #10, !dbg !4802
  call void @llvm.dbg.value(metadata i64 %51, i64 0, metadata !3819, metadata !2015) #10, !dbg !4803
  call void @llvm.memset.p0i8.i64(i8* nonnull %59, i8 0, i64 24, i32 8, i1 false), !dbg !4804
  store i64* null, i64** %54, align 8, !dbg !4805, !tbaa !2205
  call void @llvm.dbg.value(metadata %"class.std::vector"* %7, i64 0, metadata !4650, metadata !2015), !dbg !4755
  call void @_Z10quickSort2RSt6vectorIlSaIlEEii(%"class.std::vector"* nonnull dereferenceable(24) %7, i32 0, i32 %46), !dbg !4806
  call void @llvm.dbg.value(metadata %"class.std::vector"* %7, i64 0, metadata !4650, metadata !2015), !dbg !4755
  call void @llvm.dbg.value(metadata %"class.std::vector"* %7, i64 0, metadata !3824, metadata !2015) #10, !dbg !4807
  call void @llvm.dbg.value(metadata %"class.std::vector"* %7, i64 0, metadata !3829, metadata !2015) #10, !dbg !4809
  %70 = load i64*, i64** %53, align 8, !dbg !4811, !tbaa !2198
  call void @llvm.dbg.value(metadata %"class.std::vector"* %7, i64 0, metadata !2193, metadata !2015) #10, !dbg !4812
  call void @llvm.dbg.value(metadata i64* %70, i64 0, metadata !2190, metadata !2015) #10, !dbg !4814
  %71 = icmp eq i64* %70, null, !dbg !4815
  br i1 %71, label %74, label %72, !dbg !4816

; <label>:72:                                     ; preds = %69
  call void @llvm.dbg.value(metadata i64* %70, i64 0, metadata !2410, metadata !2015) #10, !dbg !4817
  %73 = bitcast i64* %70 to i8*, !dbg !4819
  call void @_ZdlPv(i8* %73) #10, !dbg !4820
  br label %74, !dbg !4821

; <label>:74:                                     ; preds = %72, %69
  call void @llvm.lifetime.end.p0i8(i64 24, i8* nonnull %50) #10, !dbg !4822
  br label %60, !dbg !4743, !llvm.loop !4823

; <label>:75:                                     ; preds = %42
  %76 = icmp ugt i64 %51, 2305843009213693951
  br i1 %76, label %79, label %77, !dbg !4743

; <label>:77:                                     ; preds = %75
  %78 = bitcast %"class.std::vector"* %7 to i8**
  br label %89, !dbg !4744

; <label>:79:                                     ; preds = %75
  call void @llvm.dbg.value(metadata %"class.benchmark::State"* %0, i64 0, metadata !3683, metadata !2015) #10, !dbg !4746
  %80 = load i8, i8* %47, align 8, !dbg !4744, !tbaa !3688, !range !3698
  %81 = icmp eq i8 %80, 1, !dbg !4744
  br i1 %81, label %83, label %82, !dbg !4747, !prof !3700

; <label>:82:                                     ; preds = %79
  call void @_ZN9benchmark5State16StartKeepRunningEv(%"class.benchmark::State"* nonnull %0) #10, !dbg !4748
  br label %83, !dbg !4749

; <label>:83:                                     ; preds = %82, %79
  %84 = load i64, i64* %48, align 8, !dbg !4750, !tbaa !3705
  %85 = add i64 %84, 1, !dbg !4750
  store i64 %85, i64* %48, align 8, !dbg !4750, !tbaa !3705
  %86 = load i64, i64* %49, align 8, !dbg !4751, !tbaa !3707
  %87 = icmp ult i64 %84, %86, !dbg !4752
  br i1 %87, label %88, label %109, !dbg !4753, !prof !3700

; <label>:88:                                     ; preds = %83
  call void @llvm.lifetime.start.p0i8(i64 24, i8* nonnull %50) #10, !dbg !4754
  call void @llvm.dbg.value(metadata %"class.std::vector"* %5, i64 0, metadata !4647, metadata !2015), !dbg !4664
  call void @llvm.dbg.value(metadata %"class.std::vector"* %7, i64 0, metadata !4650, metadata !2015), !dbg !4755
  call void @llvm.dbg.value(metadata %"class.std::vector"* %7, i64 0, metadata !3711, metadata !2015) #10, !dbg !4756
  call void @llvm.dbg.value(metadata %"class.std::vector"* %5, i64 0, metadata !3714, metadata !2015) #10, !dbg !4758
  call void @llvm.dbg.value(metadata %"class.std::vector"* %5, i64 0, metadata !2039, metadata !2015) #10, !dbg !4759
  call void @llvm.dbg.value(metadata %"class.std::vector"* %7, i64 0, metadata !3718, metadata !2015) #10, !dbg !4761
  call void @llvm.dbg.value(metadata i64 %51, i64 0, metadata !3721, metadata !2015) #10, !dbg !4763
  call void @llvm.dbg.value(metadata %"class.std::allocator"* undef, i64 0, metadata !3722, metadata !2015) #10, !dbg !4764
  call void @llvm.dbg.value(metadata %"class.std::vector"* %7, i64 0, metadata !4422, metadata !2015) #10, !dbg !4765
  call void @llvm.dbg.value(metadata %"class.std::allocator"* undef, i64 0, metadata !4425, metadata !2015) #10, !dbg !4767
  call void @llvm.memset.p0i8.i64(i8* nonnull %50, i8 0, i64 24, i32 8, i1 false) #10, !dbg !4824
  call void @llvm.dbg.value(metadata %"class.std::vector"* %7, i64 0, metadata !3727, metadata !2015) #10, !dbg !4768
  call void @llvm.dbg.value(metadata i64 %51, i64 0, metadata !3730, metadata !2015) #10, !dbg !4770
  call void @llvm.dbg.value(metadata %"class.std::vector"* %7, i64 0, metadata !2067, metadata !2015) #10, !dbg !4771
  call void @llvm.dbg.value(metadata i64 %51, i64 0, metadata !2064, metadata !2015) #10, !dbg !4773
  call void @llvm.dbg.value(metadata i64 %51, i64 0, metadata !2071, metadata !2015) #10, !dbg !4825
  call void @llvm.dbg.value(metadata i8* null, i64 0, metadata !2076, metadata !2015) #10, !dbg !4827
  call void @_ZSt17__throw_bad_allocv() #9, !dbg !4828
  unreachable, !dbg !4828

; <label>:89:                                     ; preds = %77, %106
  call void @llvm.dbg.value(metadata %"class.benchmark::State"* %0, i64 0, metadata !3683, metadata !2015) #10, !dbg !4746
  %90 = load i8, i8* %47, align 8, !dbg !4744, !tbaa !3688, !range !3698
  %91 = icmp eq i8 %90, 1, !dbg !4744
  br i1 %91, label %93, label %92, !dbg !4747, !prof !3700

; <label>:92:                                     ; preds = %89
  call void @_ZN9benchmark5State16StartKeepRunningEv(%"class.benchmark::State"* nonnull %0) #10, !dbg !4748
  br label %93, !dbg !4749

; <label>:93:                                     ; preds = %92, %89
  %94 = load i64, i64* %48, align 8, !dbg !4750, !tbaa !3705
  %95 = add i64 %94, 1, !dbg !4750
  store i64 %95, i64* %48, align 8, !dbg !4750, !tbaa !3705
  %96 = load i64, i64* %49, align 8, !dbg !4751, !tbaa !3707
  %97 = icmp ult i64 %94, %96, !dbg !4752
  br i1 %97, label %98, label %108, !dbg !4753, !prof !3700

; <label>:98:                                     ; preds = %93
  call void @llvm.lifetime.start.p0i8(i64 24, i8* nonnull %50) #10, !dbg !4754
  call void @llvm.dbg.value(metadata %"class.std::vector"* %5, i64 0, metadata !4647, metadata !2015), !dbg !4664
  call void @llvm.dbg.value(metadata %"class.std::vector"* %7, i64 0, metadata !4650, metadata !2015), !dbg !4755
  call void @llvm.dbg.value(metadata %"class.std::vector"* %7, i64 0, metadata !3711, metadata !2015) #10, !dbg !4756
  call void @llvm.dbg.value(metadata %"class.std::vector"* %5, i64 0, metadata !3714, metadata !2015) #10, !dbg !4758
  call void @llvm.dbg.value(metadata %"class.std::vector"* %5, i64 0, metadata !2039, metadata !2015) #10, !dbg !4759
  call void @llvm.dbg.value(metadata %"class.std::vector"* %7, i64 0, metadata !3718, metadata !2015) #10, !dbg !4761
  call void @llvm.dbg.value(metadata i64 %51, i64 0, metadata !3721, metadata !2015) #10, !dbg !4763
  call void @llvm.dbg.value(metadata %"class.std::allocator"* undef, i64 0, metadata !3722, metadata !2015) #10, !dbg !4764
  call void @llvm.dbg.value(metadata %"class.std::vector"* %7, i64 0, metadata !4422, metadata !2015) #10, !dbg !4765
  call void @llvm.dbg.value(metadata %"class.std::allocator"* undef, i64 0, metadata !4425, metadata !2015) #10, !dbg !4767
  call void @llvm.memset.p0i8.i64(i8* nonnull %50, i8 0, i64 24, i32 8, i1 false) #10, !dbg !4824
  call void @llvm.dbg.value(metadata %"class.std::vector"* %7, i64 0, metadata !3727, metadata !2015) #10, !dbg !4768
  call void @llvm.dbg.value(metadata i64 %51, i64 0, metadata !3730, metadata !2015) #10, !dbg !4770
  call void @llvm.dbg.value(metadata %"class.std::vector"* %7, i64 0, metadata !2067, metadata !2015) #10, !dbg !4771
  call void @llvm.dbg.value(metadata i64 %51, i64 0, metadata !2064, metadata !2015) #10, !dbg !4773
  call void @llvm.dbg.value(metadata i64 %51, i64 0, metadata !2071, metadata !2015) #10, !dbg !4825
  call void @llvm.dbg.value(metadata i8* null, i64 0, metadata !2076, metadata !2015) #10, !dbg !4827
  %99 = call i8* @_Znwm(i64 %43) #10, !dbg !4829
  %100 = bitcast i8* %99 to i64*, !dbg !4830
  store i8* %99, i8** %78, align 8, !dbg !4804, !tbaa !2198
  store i8* %99, i8** %55, align 8, !dbg !4831, !tbaa !2205
  %101 = getelementptr inbounds i64, i64* %100, i64 %51, !dbg !4832
  store i64* %101, i64** %56, align 8, !dbg !4833, !tbaa !2208
  call void @llvm.dbg.value(metadata i64* %15, i64 0, metadata !3745, metadata !2015) #10, !dbg !4774
  call void @llvm.dbg.value(metadata i64** %16, i64 0, metadata !3738, metadata !2058) #10, !dbg !4776
  call void @llvm.dbg.declare(metadata %"class.__gnu_cxx::__normal_iterator.21"* undef, metadata !3745, metadata !2015) #10, !dbg !4774
  call void @llvm.dbg.declare(metadata %"class.__gnu_cxx::__normal_iterator.21"* undef, metadata !3738, metadata !2015) #10, !dbg !4776
  call void @llvm.dbg.value(metadata i64* %100, i64 0, metadata !3746, metadata !2015) #10, !dbg !4777
  call void @llvm.dbg.value(metadata i64* %15, i64 0, metadata !3759, metadata !2015) #10, !dbg !4778
  call void @llvm.dbg.value(metadata i64** %16, i64 0, metadata !3753, metadata !2058) #10, !dbg !4780
  call void @llvm.dbg.declare(metadata %"class.__gnu_cxx::__normal_iterator.21"* undef, metadata !3759, metadata !2015) #10, !dbg !4778
  call void @llvm.dbg.declare(metadata %"class.__gnu_cxx::__normal_iterator.21"* undef, metadata !3753, metadata !2015) #10, !dbg !4780
  call void @llvm.dbg.value(metadata i64* %100, i64 0, metadata !3760, metadata !2015) #10, !dbg !4781
  call void @llvm.dbg.value(metadata i64* %15, i64 0, metadata !3769, metadata !2015) #10, !dbg !4782
  call void @llvm.dbg.value(metadata i64** %16, i64 0, metadata !3765, metadata !2058) #10, !dbg !4784
  call void @llvm.dbg.declare(metadata %"class.__gnu_cxx::__normal_iterator.21"* undef, metadata !3769, metadata !2015) #10, !dbg !4782
  call void @llvm.dbg.declare(metadata %"class.__gnu_cxx::__normal_iterator.21"* undef, metadata !3765, metadata !2015) #10, !dbg !4784
  call void @llvm.dbg.value(metadata i64* %100, i64 0, metadata !3770, metadata !2015) #10, !dbg !4785
  call void @llvm.dbg.value(metadata i64* %15, i64 0, metadata !3780, metadata !2015) #10, !dbg !4786
  call void @llvm.dbg.value(metadata i64** %16, i64 0, metadata !3775, metadata !2058) #10, !dbg !4788
  call void @llvm.dbg.declare(metadata %"class.__gnu_cxx::__normal_iterator.21"* undef, metadata !3780, metadata !2015) #10, !dbg !4786
  call void @llvm.dbg.declare(metadata %"class.__gnu_cxx::__normal_iterator.21"* undef, metadata !3775, metadata !2015) #10, !dbg !4788
  call void @llvm.dbg.value(metadata i64* %100, i64 0, metadata !3781, metadata !2015) #10, !dbg !4789
  call void @llvm.dbg.value(metadata i64* %15, i64 0, metadata !3792, metadata !2015) #10, !dbg !4790
  call void @llvm.dbg.value(metadata i64** %16, i64 0, metadata !3786, metadata !2058) #10, !dbg !4792
  call void @llvm.dbg.declare(metadata %"class.__gnu_cxx::__normal_iterator.21"* undef, metadata !3792, metadata !2015) #10, !dbg !4790
  call void @llvm.dbg.declare(metadata %"class.__gnu_cxx::__normal_iterator.21"* undef, metadata !3786, metadata !2015) #10, !dbg !4792
  call void @llvm.dbg.value(metadata i64* %100, i64 0, metadata !3793, metadata !2015) #10, !dbg !4793
  call void @llvm.dbg.value(metadata i64* %15, i64 0, metadata !3803, metadata !2015) #10, !dbg !4794
  call void @llvm.dbg.value(metadata i64** %16, i64 0, metadata !3798, metadata !2058) #10, !dbg !4796
  call void @llvm.dbg.value(metadata i64* %100, i64 0, metadata !3804, metadata !2015) #10, !dbg !4797
  call void @llvm.dbg.value(metadata i8 1, i64 0, metadata !3805, metadata !2015) #10, !dbg !4798
  call void @llvm.dbg.value(metadata i64* %15, i64 0, metadata !3817, metadata !2015) #10, !dbg !4799
  call void @llvm.dbg.value(metadata i64** %16, i64 0, metadata !3810, metadata !2058) #10, !dbg !4801
  call void @llvm.dbg.value(metadata i64* %100, i64 0, metadata !3818, metadata !2015) #10, !dbg !4802
  call void @llvm.dbg.value(metadata i64 %51, i64 0, metadata !3819, metadata !2015) #10, !dbg !4803
  call void @llvm.memmove.p0i8.p0i8.i64(i8* nonnull %99, i8* %57, i64 %43, i32 8, i1 false) #10, !dbg !4834
  store i64* %101, i64** %54, align 8, !dbg !4805, !tbaa !2205
  call void @llvm.dbg.value(metadata %"class.std::vector"* %7, i64 0, metadata !4650, metadata !2015), !dbg !4755
  call void @_Z10quickSort2RSt6vectorIlSaIlEEii(%"class.std::vector"* nonnull dereferenceable(24) %7, i32 0, i32 %46), !dbg !4806
  call void @llvm.dbg.value(metadata %"class.std::vector"* %7, i64 0, metadata !4650, metadata !2015), !dbg !4755
  call void @llvm.dbg.value(metadata %"class.std::vector"* %7, i64 0, metadata !3824, metadata !2015) #10, !dbg !4807
  call void @llvm.dbg.value(metadata %"class.std::vector"* %7, i64 0, metadata !3829, metadata !2015) #10, !dbg !4809
  %102 = load i64*, i64** %53, align 8, !dbg !4811, !tbaa !2198
  call void @llvm.dbg.value(metadata %"class.std::vector"* %7, i64 0, metadata !2193, metadata !2015) #10, !dbg !4812
  call void @llvm.dbg.value(metadata i64* %102, i64 0, metadata !2190, metadata !2015) #10, !dbg !4814
  %103 = icmp eq i64* %102, null, !dbg !4815
  br i1 %103, label %106, label %104, !dbg !4816

; <label>:104:                                    ; preds = %98
  call void @llvm.dbg.value(metadata i64* %102, i64 0, metadata !2410, metadata !2015) #10, !dbg !4817
  %105 = bitcast i64* %102 to i8*, !dbg !4819
  call void @_ZdlPv(i8* %105) #10, !dbg !4820
  br label %106, !dbg !4821

; <label>:106:                                    ; preds = %98, %104
  call void @llvm.lifetime.end.p0i8(i64 24, i8* nonnull %50) #10, !dbg !4822
  br label %89, !dbg !4743, !llvm.loop !4823

; <label>:107:                                    ; preds = %64
  br label %109, !dbg !4835

; <label>:108:                                    ; preds = %93
  br label %109, !dbg !4835

; <label>:109:                                    ; preds = %108, %107, %83
  call void @_ZN9benchmark5State17FinishKeepRunningEv(%"class.benchmark::State"* nonnull %0) #10, !dbg !4835
  call void @llvm.lifetime.end.p0i8(i64 8, i8* nonnull %12) #10, !dbg !4836
  call void @llvm.dbg.value(metadata %"class.std::vector"* %5, i64 0, metadata !4647, metadata !2015), !dbg !4664
  call void @llvm.dbg.value(metadata %"class.std::vector"* %5, i64 0, metadata !3824, metadata !2015) #10, !dbg !4837
  call void @llvm.dbg.value(metadata %"class.std::vector"* %5, i64 0, metadata !3829, metadata !2015) #10, !dbg !4839
  call void @llvm.dbg.value(metadata %"class.std::vector"* %5, i64 0, metadata !2193, metadata !2015) #10, !dbg !4841
  call void @llvm.dbg.value(metadata i64* %15, i64 0, metadata !2190, metadata !2015) #10, !dbg !4843
  %110 = icmp eq i64* %15, null, !dbg !4844
  br i1 %110, label %112, label %111, !dbg !4845

; <label>:111:                                    ; preds = %109
  call void @llvm.dbg.value(metadata i64* %15, i64 0, metadata !2410, metadata !2015) #10, !dbg !4846
  call void @_ZdlPv(i8* %57) #10, !dbg !4848
  br label %112, !dbg !4849

; <label>:112:                                    ; preds = %109, %111
  call void @llvm.lifetime.end.p0i8(i64 24, i8* nonnull %8) #10, !dbg !4836
  ret void, !dbg !4836
}

; Function Attrs: nounwind uwtable
define void @_Z6insertRSt6vectorIlSaIlEE(%"class.std::vector"* nocapture readonly dereferenceable(24)) local_unnamed_addr #1 !dbg !4850 {
  tail call void @llvm.dbg.value(metadata %"class.std::vector"* %0, i64 0, metadata !4854, metadata !2015), !dbg !4862
  tail call void @llvm.dbg.value(metadata %"class.std::vector"* %0, i64 0, metadata !2039, metadata !2015), !dbg !4863
  %2 = getelementptr inbounds %"class.std::vector", %"class.std::vector"* %0, i64 0, i32 0, i32 0, i32 1, !dbg !4865
  %3 = bitcast i64** %2 to i64*, !dbg !4865
  %4 = load i64, i64* %3, align 8, !dbg !4865, !tbaa !2205
  %5 = bitcast %"class.std::vector"* %0 to i64*, !dbg !4866
  %6 = load i64, i64* %5, align 8, !dbg !4866, !tbaa !2198
  %7 = sub i64 %4, %6, !dbg !4867
  %8 = lshr exact i64 %7, 3, !dbg !4867
  %9 = add nuw nsw i64 %8, 4294967295, !dbg !4868
  %10 = trunc i64 %9 to i32, !dbg !4869
  tail call void @llvm.dbg.value(metadata i32 %10, i64 0, metadata !4855, metadata !2015), !dbg !4870
  tail call void @llvm.dbg.value(metadata i32 1, i64 0, metadata !4856, metadata !2015), !dbg !4871
  tail call void @llvm.dbg.value(metadata i32 1, i64 0, metadata !4856, metadata !2015), !dbg !4871
  %11 = icmp sgt i32 %10, 1, !dbg !4872
  %12 = inttoptr i64 %6 to i64*, !dbg !4873
  br i1 %11, label %13, label %44, !dbg !4873

; <label>:13:                                     ; preds = %1
  %14 = and i64 %9, 4294967295
  %15 = add nsw i64 %14, -1, !dbg !4874
  %16 = and i64 %15, 1, !dbg !4874
  %17 = icmp eq i64 %14, 2, !dbg !4874
  br i1 %17, label %21, label %18, !dbg !4874

; <label>:18:                                     ; preds = %13
  %19 = sub nsw i64 %15, %16, !dbg !4874
  br label %45, !dbg !4874

; <label>:20:                                     ; preds = %78
  br label %21, !dbg !4876

; <label>:21:                                     ; preds = %20, %13
  %22 = phi i64 [ 1, %13 ], [ %81, %20 ]
  %23 = icmp eq i64 %16, 0, !dbg !4876
  br i1 %23, label %43, label %24, !dbg !4876

; <label>:24:                                     ; preds = %21
  br label %25, !dbg !4876

; <label>:25:                                     ; preds = %24
  tail call void @llvm.dbg.value(metadata i32 undef, i64 0, metadata !4856, metadata !2015), !dbg !4871
  tail call void @llvm.dbg.value(metadata %"class.std::vector"* %0, i64 0, metadata !4154, metadata !2015), !dbg !4877
  tail call void @llvm.dbg.value(metadata i64 %22, i64 0, metadata !4157, metadata !2015), !dbg !4878
  %26 = getelementptr inbounds i64, i64* %12, i64 %22, !dbg !4874
  %27 = load i64, i64* %26, align 8, !dbg !4879, !tbaa !2276
  %28 = shl i64 %27, 32, !dbg !4880
  %29 = ashr exact i64 %28, 32, !dbg !4880
  br label %30

; <label>:30:                                     ; preds = %36, %25
  %31 = phi i64 [ %22, %25 ], [ %32, %36 ]
  %32 = add nsw i64 %31, -1
  tail call void @llvm.dbg.value(metadata %"class.std::vector"* %0, i64 0, metadata !4154, metadata !2015), !dbg !4881
  tail call void @llvm.dbg.value(metadata i64 %32, i64 0, metadata !4157, metadata !2015), !dbg !4883
  %33 = getelementptr inbounds i64, i64* %12, i64 %32, !dbg !4884
  %34 = load i64, i64* %33, align 8, !dbg !4885, !tbaa !2276
  %35 = icmp sgt i64 %34, %29, !dbg !4886
  br i1 %35, label %36, label %39, !dbg !4887

; <label>:36:                                     ; preds = %30
  tail call void @llvm.dbg.value(metadata %"class.std::vector"* %0, i64 0, metadata !4154, metadata !2015), !dbg !4888
  tail call void @llvm.dbg.value(metadata i64 %32, i64 0, metadata !4157, metadata !2015), !dbg !4891
  tail call void @llvm.dbg.value(metadata %"class.std::vector"* %0, i64 0, metadata !4154, metadata !2015), !dbg !4892
  tail call void @llvm.dbg.value(metadata i64 %31, i64 0, metadata !4157, metadata !2015), !dbg !4894
  %37 = getelementptr inbounds i64, i64* %12, i64 %31, !dbg !4895
  store i64 %34, i64* %37, align 8, !dbg !4896, !tbaa !2276
  %38 = icmp sgt i64 %31, 1, !dbg !4897
  br i1 %38, label %30, label %39, !dbg !4898, !llvm.loop !4899

; <label>:39:                                     ; preds = %36, %30
  %40 = phi i64 [ %31, %30 ], [ %32, %36 ]
  tail call void @llvm.dbg.value(metadata %"class.std::vector"* %0, i64 0, metadata !4154, metadata !2015), !dbg !4901
  tail call void @llvm.dbg.value(metadata i64 undef, i64 0, metadata !4157, metadata !2015), !dbg !4903
  %41 = getelementptr inbounds i64, i64* %12, i64 %40, !dbg !4904
  store i64 %29, i64* %41, align 8, !dbg !4905, !tbaa !2276
  br label %42, !dbg !4873

; <label>:42:                                     ; preds = %39
  br label %43, !dbg !4876

; <label>:43:                                     ; preds = %21, %42
  br label %44, !dbg !4876

; <label>:44:                                     ; preds = %43, %1
  ret void, !dbg !4876

; <label>:45:                                     ; preds = %78, %18
  %46 = phi i64 [ 1, %18 ], [ %81, %78 ]
  %47 = phi i64 [ %19, %18 ], [ %82, %78 ]
  tail call void @llvm.dbg.value(metadata i32 undef, i64 0, metadata !4856, metadata !2015), !dbg !4871
  tail call void @llvm.dbg.value(metadata %"class.std::vector"* %0, i64 0, metadata !4154, metadata !2015), !dbg !4877
  tail call void @llvm.dbg.value(metadata i64 %46, i64 0, metadata !4157, metadata !2015), !dbg !4878
  %48 = getelementptr inbounds i64, i64* %12, i64 %46, !dbg !4874
  %49 = load i64, i64* %48, align 8, !dbg !4879, !tbaa !2276
  %50 = shl i64 %49, 32, !dbg !4880
  %51 = ashr exact i64 %50, 32, !dbg !4880
  br label %52

; <label>:52:                                     ; preds = %45, %58
  %53 = phi i64 [ %46, %45 ], [ %54, %58 ]
  %54 = add nsw i64 %53, -1
  tail call void @llvm.dbg.value(metadata %"class.std::vector"* %0, i64 0, metadata !4154, metadata !2015), !dbg !4881
  tail call void @llvm.dbg.value(metadata i64 %54, i64 0, metadata !4157, metadata !2015), !dbg !4883
  %55 = getelementptr inbounds i64, i64* %12, i64 %54, !dbg !4884
  %56 = load i64, i64* %55, align 8, !dbg !4885, !tbaa !2276
  %57 = icmp sgt i64 %56, %51, !dbg !4886
  br i1 %57, label %58, label %61, !dbg !4887

; <label>:58:                                     ; preds = %52
  tail call void @llvm.dbg.value(metadata %"class.std::vector"* %0, i64 0, metadata !4154, metadata !2015), !dbg !4888
  tail call void @llvm.dbg.value(metadata i64 %54, i64 0, metadata !4157, metadata !2015), !dbg !4891
  tail call void @llvm.dbg.value(metadata %"class.std::vector"* %0, i64 0, metadata !4154, metadata !2015), !dbg !4892
  tail call void @llvm.dbg.value(metadata i64 %53, i64 0, metadata !4157, metadata !2015), !dbg !4894
  %59 = getelementptr inbounds i64, i64* %12, i64 %53, !dbg !4895
  store i64 %56, i64* %59, align 8, !dbg !4896, !tbaa !2276
  %60 = icmp sgt i64 %53, 1, !dbg !4897
  br i1 %60, label %52, label %61, !dbg !4898, !llvm.loop !4899

; <label>:61:                                     ; preds = %52, %58
  %62 = phi i64 [ %53, %52 ], [ %54, %58 ]
  tail call void @llvm.dbg.value(metadata %"class.std::vector"* %0, i64 0, metadata !4154, metadata !2015), !dbg !4901
  tail call void @llvm.dbg.value(metadata i64 undef, i64 0, metadata !4157, metadata !2015), !dbg !4903
  %63 = getelementptr inbounds i64, i64* %12, i64 %62, !dbg !4904
  store i64 %51, i64* %63, align 8, !dbg !4905, !tbaa !2276
  %64 = add nuw nsw i64 %46, 1, !dbg !4906
  tail call void @llvm.dbg.value(metadata i32 undef, i64 0, metadata !4856, metadata !2015), !dbg !4871
  tail call void @llvm.dbg.value(metadata %"class.std::vector"* %0, i64 0, metadata !4154, metadata !2015), !dbg !4877
  tail call void @llvm.dbg.value(metadata i64 %46, i64 0, metadata !4157, metadata !2015), !dbg !4878
  %65 = getelementptr inbounds i64, i64* %12, i64 %64, !dbg !4874
  %66 = load i64, i64* %65, align 8, !dbg !4879, !tbaa !2276
  %67 = shl i64 %66, 32, !dbg !4880
  %68 = ashr exact i64 %67, 32, !dbg !4880
  br label %69

; <label>:69:                                     ; preds = %75, %61
  %70 = phi i64 [ %64, %61 ], [ %71, %75 ]
  %71 = add nsw i64 %70, -1
  tail call void @llvm.dbg.value(metadata %"class.std::vector"* %0, i64 0, metadata !4154, metadata !2015), !dbg !4881
  tail call void @llvm.dbg.value(metadata i64 %54, i64 0, metadata !4157, metadata !2015), !dbg !4883
  %72 = getelementptr inbounds i64, i64* %12, i64 %71, !dbg !4884
  %73 = load i64, i64* %72, align 8, !dbg !4885, !tbaa !2276
  %74 = icmp sgt i64 %73, %68, !dbg !4886
  br i1 %74, label %75, label %78, !dbg !4887

; <label>:75:                                     ; preds = %69
  tail call void @llvm.dbg.value(metadata %"class.std::vector"* %0, i64 0, metadata !4154, metadata !2015), !dbg !4888
  tail call void @llvm.dbg.value(metadata i64 %54, i64 0, metadata !4157, metadata !2015), !dbg !4891
  tail call void @llvm.dbg.value(metadata %"class.std::vector"* %0, i64 0, metadata !4154, metadata !2015), !dbg !4892
  tail call void @llvm.dbg.value(metadata i64 %53, i64 0, metadata !4157, metadata !2015), !dbg !4894
  %76 = getelementptr inbounds i64, i64* %12, i64 %70, !dbg !4895
  store i64 %73, i64* %76, align 8, !dbg !4896, !tbaa !2276
  %77 = icmp sgt i64 %70, 1, !dbg !4897
  br i1 %77, label %69, label %78, !dbg !4898, !llvm.loop !4899

; <label>:78:                                     ; preds = %75, %69
  %79 = phi i64 [ %70, %69 ], [ %71, %75 ]
  tail call void @llvm.dbg.value(metadata %"class.std::vector"* %0, i64 0, metadata !4154, metadata !2015), !dbg !4901
  tail call void @llvm.dbg.value(metadata i64 undef, i64 0, metadata !4157, metadata !2015), !dbg !4903
  %80 = getelementptr inbounds i64, i64* %12, i64 %79, !dbg !4904
  store i64 %68, i64* %80, align 8, !dbg !4905, !tbaa !2276
  %81 = add nsw i64 %46, 2, !dbg !4906
  %82 = add i64 %47, -2, !dbg !4873
  %83 = icmp eq i64 %82, 0, !dbg !4873
  br i1 %83, label %20, label %45, !dbg !4873, !llvm.loop !4907
}

; Function Attrs: nounwind uwtable
define void @_Z9BM_insertRN9benchmark5StateE(%"class.benchmark::State"* dereferenceable(144)) local_unnamed_addr #1 !dbg !4909 {
  %2 = alloca <2 x i64>, align 16
  %3 = bitcast <2 x i64>* %2 to %"class.std::uniform_int_distribution"*
  %4 = alloca %"struct.std::uniform_int_distribution<unsigned long>::param_type", align 8
  %5 = alloca %"class.std::vector", align 8
  %6 = alloca %"class.std::linear_congruential_engine", align 8
  tail call void @llvm.dbg.value(metadata %"class.benchmark::State"* %0, i64 0, metadata !4911, metadata !2015), !dbg !4919
  %7 = bitcast %"class.std::vector"* %5 to i8*, !dbg !4920
  call void @llvm.lifetime.start.p0i8(i64 24, i8* nonnull %7) #10, !dbg !4920
  tail call void @llvm.dbg.value(metadata %"class.benchmark::State"* %0, i64 0, metadata !3554, metadata !2015), !dbg !4921
  tail call void @llvm.dbg.value(metadata i64 0, i64 0, metadata !3557, metadata !2015), !dbg !4923
  tail call void @llvm.dbg.value(metadata %"class.benchmark::State"* %0, i64 0, metadata !3562, metadata !3567), !dbg !4924
  tail call void @llvm.dbg.value(metadata i64 0, i64 0, metadata !3565, metadata !2015), !dbg !4926
  %8 = getelementptr inbounds %"class.benchmark::State", %"class.benchmark::State"* %0, i64 0, i32 3, i32 0, i32 0, i32 0, !dbg !4927
  %9 = load i32*, i32** %8, align 8, !dbg !4927, !tbaa !3572
  %10 = load i32, i32* %9, align 4, !dbg !4928, !tbaa !3576
  tail call void @llvm.dbg.value(metadata %"class.std::vector"* %5, i64 0, metadata !4912, metadata !2015), !dbg !4929
  call void @_Z5rangei(%"class.std::vector"* nonnull sret %5, i32 %10), !dbg !4930
  %11 = bitcast %"class.std::linear_congruential_engine"* %6 to i8*, !dbg !4931
  call void @llvm.lifetime.start.p0i8(i64 8, i8* nonnull %11) #10, !dbg !4931
  tail call void @llvm.dbg.value(metadata %"class.std::linear_congruential_engine"* %6, i64 0, metadata !4913, metadata !2015), !dbg !4932
  %12 = getelementptr inbounds %"class.std::linear_congruential_engine", %"class.std::linear_congruential_engine"* %6, i64 0, i32 0
  store i64 200, i64* %12, align 8, !tbaa !3582
  tail call void @llvm.dbg.value(metadata %"class.std::vector"* %5, i64 0, metadata !4912, metadata !2015), !dbg !4929
  tail call void @llvm.dbg.value(metadata %"class.std::vector"* %5, i64 0, metadata !3584, metadata !2015), !dbg !4933
  tail call void @llvm.dbg.value(metadata %"class.__gnu_cxx::__normal_iterator"* undef, i64 0, metadata !3589, metadata !2015), !dbg !4935
  tail call void @llvm.dbg.value(metadata %"class.std::vector"* %5, i64 0, metadata !3592, metadata !2015), !dbg !4937
  %13 = getelementptr inbounds %"class.std::vector", %"class.std::vector"* %5, i64 0, i32 0, i32 0, i32 0, !dbg !4938
  %14 = load i64*, i64** %13, align 8, !dbg !4938, !tbaa !2418
  tail call void @llvm.dbg.value(metadata %"class.std::vector"* %5, i64 0, metadata !4912, metadata !2015), !dbg !4929
  tail call void @llvm.dbg.value(metadata %"class.std::vector"* %5, i64 0, metadata !3598, metadata !2015), !dbg !4939
  %15 = getelementptr inbounds %"class.std::vector", %"class.std::vector"* %5, i64 0, i32 0, i32 0, i32 1, !dbg !4941
  tail call void @llvm.dbg.value(metadata %"class.__gnu_cxx::__normal_iterator"* undef, i64 0, metadata !3589, metadata !2015), !dbg !4942
  tail call void @llvm.dbg.value(metadata i64** %15, i64 0, metadata !3592, metadata !2015), !dbg !4944
  %16 = load i64*, i64** %15, align 8, !dbg !4945, !tbaa !2418
  tail call void @llvm.dbg.value(metadata %"class.std::linear_congruential_engine"* %6, i64 0, metadata !4913, metadata !2015), !dbg !4932
  %17 = ptrtoint i64* %14 to i64
  tail call void @llvm.dbg.value(metadata %"class.std::linear_congruential_engine"* %6, i64 0, metadata !3608, metadata !2015) #10, !dbg !4946
  tail call void @llvm.dbg.value(metadata %"class.__gnu_cxx::__normal_iterator"* undef, i64 0, metadata !3615, metadata !2015) #10, !dbg !4948
  tail call void @llvm.dbg.value(metadata %"class.__gnu_cxx::__normal_iterator"* undef, i64 0, metadata !3616, metadata !2015) #10, !dbg !4949
  tail call void @llvm.dbg.value(metadata %"class.__gnu_cxx::__normal_iterator"* undef, i64 0, metadata !3625, metadata !2015) #10, !dbg !4950
  tail call void @llvm.dbg.value(metadata %"class.__gnu_cxx::__normal_iterator"* undef, i64 0, metadata !3631, metadata !2015) #10, !dbg !4952
  %18 = icmp eq i64* %14, %16, !dbg !4953
  %19 = ptrtoint i64* %16 to i64, !dbg !4954
  br i1 %18, label %41, label %20, !dbg !4954

; <label>:20:                                     ; preds = %1
  %21 = bitcast <2 x i64>* %2 to i8*, !dbg !4955
  call void @llvm.lifetime.start.p0i8(i64 16, i8* nonnull %21) #10, !dbg !4955
  tail call void @llvm.dbg.value(metadata %"class.std::uniform_int_distribution"* %3, i64 0, metadata !3617, metadata !2015) #10, !dbg !4956
  tail call void @llvm.dbg.value(metadata %"class.std::uniform_int_distribution"* %3, i64 0, metadata !3640, metadata !2015) #10, !dbg !4957
  tail call void @llvm.dbg.value(metadata i64 0, i64 0, metadata !3643, metadata !2015) #10, !dbg !4959
  tail call void @llvm.dbg.value(metadata i64 -1, i64 0, metadata !3644, metadata !2015) #10, !dbg !4960
  tail call void @llvm.dbg.value(metadata %"class.std::uniform_int_distribution"* %3, i64 0, metadata !3649, metadata !2015) #10, !dbg !4961
  tail call void @llvm.dbg.value(metadata i64 0, i64 0, metadata !3652, metadata !2015) #10, !dbg !4963
  tail call void @llvm.dbg.value(metadata i64 -1, i64 0, metadata !3653, metadata !2015) #10, !dbg !4964
  store <2 x i64> <i64 0, i64 -1>, <2 x i64>* %2, align 16, !dbg !4965, !tbaa !2276
  tail call void @llvm.dbg.value(metadata %"class.__gnu_cxx::__normal_iterator"* undef, i64 0, metadata !3615, metadata !2015) #10, !dbg !4948
  tail call void @llvm.dbg.value(metadata %"class.__gnu_cxx::__normal_iterator"* undef, i64 0, metadata !3660, metadata !2015) #10, !dbg !4966
  %22 = getelementptr inbounds i64, i64* %14, i64 1
  tail call void @llvm.dbg.value(metadata %"class.__gnu_cxx::__normal_iterator"* undef, i64 0, metadata !3616, metadata !2015) #10, !dbg !4949
  tail call void @llvm.dbg.value(metadata %"class.__gnu_cxx::__normal_iterator"* undef, i64 0, metadata !3619, metadata !2015) #10, !dbg !4968
  tail call void @llvm.dbg.value(metadata %"class.__gnu_cxx::__normal_iterator"* undef, i64 0, metadata !3668, metadata !2015) #10, !dbg !4969
  tail call void @llvm.dbg.value(metadata %"class.__gnu_cxx::__normal_iterator"* undef, i64 0, metadata !3671, metadata !2015) #10, !dbg !4971
  %23 = icmp eq i64* %22, %16, !dbg !4972
  br i1 %23, label %29, label %24, !dbg !4973

; <label>:24:                                     ; preds = %20
  %25 = bitcast %"struct.std::uniform_int_distribution<unsigned long>::param_type"* %4 to i8*
  %26 = getelementptr inbounds %"struct.std::uniform_int_distribution<unsigned long>::param_type", %"struct.std::uniform_int_distribution<unsigned long>::param_type"* %4, i64 0, i32 0
  %27 = getelementptr inbounds %"struct.std::uniform_int_distribution<unsigned long>::param_type", %"struct.std::uniform_int_distribution<unsigned long>::param_type"* %4, i64 0, i32 1
  br label %30, !dbg !4973

; <label>:28:                                     ; preds = %30
  br label %29, !dbg !4974

; <label>:29:                                     ; preds = %28, %20
  call void @llvm.lifetime.end.p0i8(i64 16, i8* nonnull %21) #10, !dbg !4974
  br label %41, !dbg !4974

; <label>:30:                                     ; preds = %30, %24
  %31 = phi i64* [ %22, %24 ], [ %39, %30 ]
  %32 = ptrtoint i64* %31 to i64
  call void @llvm.lifetime.start.p0i8(i64 16, i8* nonnull %25) #10, !dbg !4975
  call void @llvm.dbg.value(metadata %"class.__gnu_cxx::__normal_iterator"* undef, i64 0, metadata !3615, metadata !2015) #10, !dbg !4948
  call void @llvm.dbg.value(metadata %"class.__gnu_cxx::__normal_iterator"* undef, i64 0, metadata !3619, metadata !2015) #10, !dbg !4968
  call void @llvm.dbg.value(metadata %"class.__gnu_cxx::__normal_iterator"* undef, i64 0, metadata !3845, metadata !2015) #10, !dbg !4976
  call void @llvm.dbg.value(metadata %"class.__gnu_cxx::__normal_iterator"* undef, i64 0, metadata !3850, metadata !2015) #10, !dbg !4978
  %33 = sub i64 %32, %17, !dbg !4979
  %34 = ashr exact i64 %33, 3, !dbg !4979
  call void @llvm.dbg.value(metadata %"struct.std::uniform_int_distribution<unsigned long>::param_type"* %4, i64 0, metadata !3649, metadata !2015) #10, !dbg !4980
  call void @llvm.dbg.value(metadata i64 0, i64 0, metadata !3652, metadata !2015) #10, !dbg !4982
  call void @llvm.dbg.value(metadata i64 %34, i64 0, metadata !3653, metadata !2015) #10, !dbg !4983
  store i64 0, i64* %26, align 8, !dbg !4984, !tbaa !3860
  store i64 %34, i64* %27, align 8, !dbg !4985, !tbaa !3863
  call void @llvm.dbg.value(metadata %"class.std::uniform_int_distribution"* %3, i64 0, metadata !3617, metadata !2015) #10, !dbg !4956
  %35 = call i64 @_ZNSt24uniform_int_distributionImEclISt26linear_congruential_engineImLm48271ELm0ELm2147483647EEEEmRT_RKNS0_10param_typeE(%"class.std::uniform_int_distribution"* nonnull %3, %"class.std::linear_congruential_engine"* nonnull dereferenceable(8) %6, %"struct.std::uniform_int_distribution<unsigned long>::param_type"* nonnull dereferenceable(16) %4) #10, !dbg !4986
  call void @llvm.dbg.value(metadata %"class.__gnu_cxx::__normal_iterator"* undef, i64 0, metadata !3615, metadata !2015) #10, !dbg !4948
  call void @llvm.dbg.value(metadata %"class.__gnu_cxx::__normal_iterator"* undef, i64 0, metadata !3660, metadata !2015) #10, !dbg !4987
  %36 = getelementptr inbounds i64, i64* %14, i64 %35, !dbg !4989
  call void @llvm.dbg.value(metadata %"class.__gnu_cxx::__normal_iterator"* undef, i64 0, metadata !3868, metadata !2015) #10, !dbg !4990
  call void @llvm.dbg.value(metadata %"class.__gnu_cxx::__normal_iterator"* undef, i64 0, metadata !3876, metadata !2015) #10, !dbg !4992
  call void @llvm.dbg.value(metadata i64* %31, i64 0, metadata !3880, metadata !2015) #10, !dbg !4993
  call void @llvm.dbg.value(metadata i64* %36, i64 0, metadata !3886, metadata !2015) #10, !dbg !4995
  %37 = load i64, i64* %31, align 8, !dbg !4996, !tbaa !2276
  call void @llvm.dbg.value(metadata i64 %37, i64 0, metadata !3887, metadata !2015) #10, !dbg !4997
  %38 = load i64, i64* %36, align 8, !dbg !4998, !tbaa !2276
  store i64 %38, i64* %31, align 8, !dbg !4999, !tbaa !2276
  store i64 %37, i64* %36, align 8, !dbg !5000, !tbaa !2276
  call void @llvm.lifetime.end.p0i8(i64 16, i8* nonnull %25) #10, !dbg !5001
  call void @llvm.dbg.value(metadata %"class.__gnu_cxx::__normal_iterator"* undef, i64 0, metadata !3619, metadata !2015) #10, !dbg !4968
  %39 = getelementptr inbounds i64, i64* %31, i64 1
  call void @llvm.dbg.value(metadata %"class.__gnu_cxx::__normal_iterator"* undef, i64 0, metadata !3616, metadata !2015) #10, !dbg !4949
  call void @llvm.dbg.value(metadata %"class.__gnu_cxx::__normal_iterator"* undef, i64 0, metadata !3619, metadata !2015) #10, !dbg !4968
  call void @llvm.dbg.value(metadata %"class.__gnu_cxx::__normal_iterator"* undef, i64 0, metadata !3668, metadata !2015) #10, !dbg !4969
  call void @llvm.dbg.value(metadata %"class.__gnu_cxx::__normal_iterator"* undef, i64 0, metadata !3671, metadata !2015) #10, !dbg !4971
  %40 = icmp eq i64* %39, %16, !dbg !4972
  br i1 %40, label %28, label %30, !dbg !4973, !llvm.loop !3897

; <label>:41:                                     ; preds = %1, %29
  call void @llvm.dbg.value(metadata %"class.std::vector"* %5, i64 0, metadata !4912, metadata !2015), !dbg !4929
  tail call void @llvm.dbg.value(metadata %"class.std::vector"* %5, i64 0, metadata !2039, metadata !2015), !dbg !5002
  %42 = sub i64 %19, %17, !dbg !5004
  %43 = lshr exact i64 %42, 3, !dbg !5004
  %44 = add nuw nsw i64 %43, 4294967295, !dbg !5005
  %45 = trunc i64 %44 to i32, !dbg !5006
  call void @llvm.dbg.value(metadata i32 %45, i64 0, metadata !4914, metadata !2015), !dbg !5007
  %46 = getelementptr inbounds %"class.benchmark::State", %"class.benchmark::State"* %0, i64 0, i32 0
  %47 = getelementptr inbounds %"class.benchmark::State", %"class.benchmark::State"* %0, i64 0, i32 2
  %48 = getelementptr inbounds %"class.benchmark::State", %"class.benchmark::State"* %0, i64 0, i32 11
  %49 = ashr exact i64 %42, 3
  %50 = icmp eq i64 %49, 0
  %51 = icmp eq i64 %42, 0
  %52 = icmp sgt i32 %45, 1
  %53 = and i64 %44, 4294967295
  %54 = bitcast i64* %14 to i8*
  br i1 %50, label %55, label %71, !dbg !5008

; <label>:55:                                     ; preds = %41
  %56 = shl nuw nsw i64 %53, 3, !dbg !5009
  %57 = add nsw i64 %56, -8, !dbg !5009
  br label %58, !dbg !5009

; <label>:58:                                     ; preds = %69, %55
  call void @llvm.dbg.value(metadata %"class.benchmark::State"* %0, i64 0, metadata !3683, metadata !2015) #10, !dbg !5011
  %59 = load i8, i8* %46, align 8, !dbg !5009, !tbaa !3688, !range !3698
  %60 = icmp eq i8 %59, 1, !dbg !5009
  br i1 %60, label %62, label %61, !dbg !5012, !prof !3700

; <label>:61:                                     ; preds = %58
  call void @_ZN9benchmark5State16StartKeepRunningEv(%"class.benchmark::State"* nonnull %0) #10, !dbg !5013
  br label %62, !dbg !5014

; <label>:62:                                     ; preds = %61, %58
  %63 = load i64, i64* %47, align 8, !dbg !5015, !tbaa !3705
  %64 = add i64 %63, 1, !dbg !5015
  store i64 %64, i64* %47, align 8, !dbg !5015, !tbaa !3705
  %65 = load i64, i64* %48, align 8, !dbg !5016, !tbaa !3707
  %66 = icmp ult i64 %63, %65, !dbg !5017
  br i1 %66, label %67, label %153, !dbg !5018, !prof !3700

; <label>:67:                                     ; preds = %62
  call void @llvm.dbg.value(metadata %"class.std::vector"* %5, i64 0, metadata !4912, metadata !2015), !dbg !4929
  call void @llvm.dbg.value(metadata %"class.std::vector"* undef, i64 0, metadata !4915, metadata !2015), !dbg !5019
  call void @llvm.dbg.value(metadata %"class.std::vector"* undef, i64 0, metadata !3711, metadata !2015) #10, !dbg !5020
  call void @llvm.dbg.value(metadata %"class.std::vector"* %5, i64 0, metadata !3714, metadata !2015) #10, !dbg !5022
  call void @llvm.dbg.value(metadata %"class.std::vector"* %5, i64 0, metadata !2039, metadata !2015) #10, !dbg !5023
  call void @llvm.dbg.value(metadata %"class.std::vector"* undef, i64 0, metadata !3718, metadata !2015) #10, !dbg !5025
  call void @llvm.dbg.value(metadata i64 %49, i64 0, metadata !3721, metadata !2015) #10, !dbg !5027
  call void @llvm.dbg.value(metadata %"class.std::allocator"* undef, i64 0, metadata !3722, metadata !2015) #10, !dbg !5028
  call void @llvm.dbg.value(metadata %"class.std::vector"* undef, i64 0, metadata !3727, metadata !2015) #10, !dbg !5029
  call void @llvm.dbg.value(metadata i64 %49, i64 0, metadata !3730, metadata !2015) #10, !dbg !5031
  call void @llvm.dbg.value(metadata %"class.std::vector"* undef, i64 0, metadata !2067, metadata !2015) #10, !dbg !5032
  call void @llvm.dbg.value(metadata i64 %49, i64 0, metadata !2064, metadata !2015) #10, !dbg !5034
  call void @llvm.dbg.value(metadata i64** %15, i64 0, metadata !3738, metadata !2058) #10, !dbg !5035
  call void @llvm.dbg.declare(metadata %"class.__gnu_cxx::__normal_iterator.21"* undef, metadata !3745, metadata !2015) #10, !dbg !5037
  call void @llvm.dbg.declare(metadata %"class.__gnu_cxx::__normal_iterator.21"* undef, metadata !3738, metadata !2015) #10, !dbg !5035
  call void @llvm.dbg.value(metadata i64* null, i64 0, metadata !3746, metadata !2015) #10, !dbg !5038
  call void @llvm.dbg.value(metadata i64** %15, i64 0, metadata !3753, metadata !2058) #10, !dbg !5039
  call void @llvm.dbg.declare(metadata %"class.__gnu_cxx::__normal_iterator.21"* undef, metadata !3759, metadata !2015) #10, !dbg !5041
  call void @llvm.dbg.declare(metadata %"class.__gnu_cxx::__normal_iterator.21"* undef, metadata !3753, metadata !2015) #10, !dbg !5039
  call void @llvm.dbg.value(metadata i64* null, i64 0, metadata !3760, metadata !2015) #10, !dbg !5042
  call void @llvm.dbg.value(metadata i64** %15, i64 0, metadata !3765, metadata !2058) #10, !dbg !5043
  call void @llvm.dbg.declare(metadata %"class.__gnu_cxx::__normal_iterator.21"* undef, metadata !3769, metadata !2015) #10, !dbg !5045
  call void @llvm.dbg.declare(metadata %"class.__gnu_cxx::__normal_iterator.21"* undef, metadata !3765, metadata !2015) #10, !dbg !5043
  call void @llvm.dbg.value(metadata i64* null, i64 0, metadata !3770, metadata !2015) #10, !dbg !5046
  call void @llvm.dbg.value(metadata i64** %15, i64 0, metadata !3775, metadata !2058) #10, !dbg !5047
  call void @llvm.dbg.declare(metadata %"class.__gnu_cxx::__normal_iterator.21"* undef, metadata !3780, metadata !2015) #10, !dbg !5049
  call void @llvm.dbg.declare(metadata %"class.__gnu_cxx::__normal_iterator.21"* undef, metadata !3775, metadata !2015) #10, !dbg !5047
  call void @llvm.dbg.value(metadata i64* null, i64 0, metadata !3781, metadata !2015) #10, !dbg !5050
  call void @llvm.dbg.value(metadata i64** %15, i64 0, metadata !3786, metadata !2058) #10, !dbg !5051
  call void @llvm.dbg.declare(metadata %"class.__gnu_cxx::__normal_iterator.21"* undef, metadata !3792, metadata !2015) #10, !dbg !5053
  call void @llvm.dbg.declare(metadata %"class.__gnu_cxx::__normal_iterator.21"* undef, metadata !3786, metadata !2015) #10, !dbg !5051
  call void @llvm.dbg.value(metadata i64* null, i64 0, metadata !3793, metadata !2015) #10, !dbg !5054
  call void @llvm.dbg.value(metadata i64** %15, i64 0, metadata !3798, metadata !2058) #10, !dbg !5055
  call void @llvm.dbg.value(metadata i64* null, i64 0, metadata !3804, metadata !2015) #10, !dbg !5057
  call void @llvm.dbg.value(metadata i8 1, i64 0, metadata !3805, metadata !2015) #10, !dbg !5058
  call void @llvm.dbg.value(metadata i64** %15, i64 0, metadata !3810, metadata !2058) #10, !dbg !5059
  call void @llvm.dbg.value(metadata i64* null, i64 0, metadata !3818, metadata !2015) #10, !dbg !5061
  br i1 %51, label %69, label %68, !dbg !5062

; <label>:68:                                     ; preds = %67
  call void @llvm.memcpy.p0i8.p0i8.i64(i8* null, i8* %54, i64 %42, i32 8, i1 false) #10, !dbg !5063
  br label %69, !dbg !5063

; <label>:69:                                     ; preds = %68, %67
  call void @llvm.dbg.value(metadata %"class.std::vector"* undef, i64 0, metadata !4915, metadata !2015), !dbg !5019
  tail call void @llvm.dbg.value(metadata %"class.std::vector"* undef, i64 0, metadata !4854, metadata !2015), !dbg !5064
  tail call void @llvm.dbg.value(metadata %"class.std::vector"* undef, i64 0, metadata !2039, metadata !2015), !dbg !5066
  tail call void @llvm.dbg.value(metadata i32 %45, i64 0, metadata !4855, metadata !2015), !dbg !5068
  tail call void @llvm.dbg.value(metadata i32 1, i64 0, metadata !4856, metadata !2015), !dbg !5069
  tail call void @llvm.dbg.value(metadata i32 1, i64 0, metadata !4856, metadata !2015), !dbg !5069
  br i1 %52, label %70, label %58, !dbg !5070, !llvm.loop !5071

; <label>:70:                                     ; preds = %69
  call void @llvm.memset.p0i8.i64(i8* inttoptr (i64 8 to i8*), i8 0, i64 %57, i32 8, i1 false), !dbg !5073
  tail call void @llvm.dbg.value(metadata i32 undef, i64 0, metadata !4856, metadata !2015), !dbg !5069
  tail call void @llvm.dbg.value(metadata %"class.std::vector"* undef, i64 0, metadata !4154, metadata !2015), !dbg !5074
  tail call void @llvm.dbg.value(metadata i64 1, i64 0, metadata !4157, metadata !2015), !dbg !5076
  tail call void @llvm.dbg.value(metadata %"class.std::vector"* undef, i64 0, metadata !4154, metadata !2015), !dbg !5077
  call void @llvm.trap()
  unreachable

; <label>:71:                                     ; preds = %41
  %72 = icmp ugt i64 %49, 2305843009213693951
  br i1 %72, label %79, label %73, !dbg !5008

; <label>:73:                                     ; preds = %71
  %74 = add nsw i64 %53, -1, !dbg !5009
  %75 = and i64 %74, 1
  %76 = icmp eq i64 %53, 2
  %77 = sub nsw i64 %74, %75
  %78 = icmp eq i64 %75, 0
  br label %88, !dbg !5009

; <label>:79:                                     ; preds = %71
  call void @llvm.dbg.value(metadata %"class.benchmark::State"* %0, i64 0, metadata !3683, metadata !2015) #10, !dbg !5011
  %80 = load i8, i8* %46, align 8, !dbg !5009, !tbaa !3688, !range !3698
  %81 = icmp eq i8 %80, 1, !dbg !5009
  br i1 %81, label %83, label %82, !dbg !5012, !prof !3700

; <label>:82:                                     ; preds = %79
  call void @_ZN9benchmark5State16StartKeepRunningEv(%"class.benchmark::State"* nonnull %0) #10, !dbg !5013
  br label %83, !dbg !5014

; <label>:83:                                     ; preds = %82, %79
  %84 = load i64, i64* %47, align 8, !dbg !5015, !tbaa !3705
  %85 = add i64 %84, 1, !dbg !5015
  store i64 %85, i64* %47, align 8, !dbg !5015, !tbaa !3705
  %86 = load i64, i64* %48, align 8, !dbg !5016, !tbaa !3707
  %87 = icmp ult i64 %84, %86, !dbg !5017
  br i1 %87, label %97, label %155, !dbg !5018, !prof !3700

; <label>:88:                                     ; preds = %73, %152
  call void @llvm.dbg.value(metadata %"class.benchmark::State"* %0, i64 0, metadata !3683, metadata !2015) #10, !dbg !5011
  %89 = load i8, i8* %46, align 8, !dbg !5009, !tbaa !3688, !range !3698
  %90 = icmp eq i8 %89, 1, !dbg !5009
  br i1 %90, label %92, label %91, !dbg !5012, !prof !3700

; <label>:91:                                     ; preds = %88
  call void @_ZN9benchmark5State16StartKeepRunningEv(%"class.benchmark::State"* nonnull %0) #10, !dbg !5013
  br label %92, !dbg !5014

; <label>:92:                                     ; preds = %91, %88
  %93 = load i64, i64* %47, align 8, !dbg !5015, !tbaa !3705
  %94 = add i64 %93, 1, !dbg !5015
  store i64 %94, i64* %47, align 8, !dbg !5015, !tbaa !3705
  %95 = load i64, i64* %48, align 8, !dbg !5016, !tbaa !3707
  %96 = icmp ult i64 %93, %95, !dbg !5017
  br i1 %96, label %98, label %154, !dbg !5018, !prof !3700

; <label>:97:                                     ; preds = %83
  call void @llvm.dbg.value(metadata %"class.std::vector"* %5, i64 0, metadata !4912, metadata !2015), !dbg !4929
  call void @llvm.dbg.value(metadata %"class.std::vector"* undef, i64 0, metadata !4915, metadata !2015), !dbg !5019
  call void @llvm.dbg.value(metadata %"class.std::vector"* undef, i64 0, metadata !3711, metadata !2015) #10, !dbg !5020
  call void @llvm.dbg.value(metadata %"class.std::vector"* %5, i64 0, metadata !3714, metadata !2015) #10, !dbg !5022
  call void @llvm.dbg.value(metadata %"class.std::vector"* %5, i64 0, metadata !2039, metadata !2015) #10, !dbg !5023
  call void @llvm.dbg.value(metadata %"class.std::vector"* undef, i64 0, metadata !3718, metadata !2015) #10, !dbg !5025
  call void @llvm.dbg.value(metadata i64 %49, i64 0, metadata !3721, metadata !2015) #10, !dbg !5027
  call void @llvm.dbg.value(metadata %"class.std::allocator"* undef, i64 0, metadata !3722, metadata !2015) #10, !dbg !5028
  call void @llvm.dbg.value(metadata %"class.std::vector"* undef, i64 0, metadata !3727, metadata !2015) #10, !dbg !5029
  call void @llvm.dbg.value(metadata i64 %49, i64 0, metadata !3730, metadata !2015) #10, !dbg !5031
  call void @llvm.dbg.value(metadata %"class.std::vector"* undef, i64 0, metadata !2067, metadata !2015) #10, !dbg !5032
  call void @llvm.dbg.value(metadata i64 %49, i64 0, metadata !2064, metadata !2015) #10, !dbg !5034
  call void @llvm.dbg.value(metadata i64 %49, i64 0, metadata !2071, metadata !2015) #10, !dbg !5079
  call void @llvm.dbg.value(metadata i8* null, i64 0, metadata !2076, metadata !2015) #10, !dbg !5081
  call void @_ZSt17__throw_bad_allocv() #9, !dbg !5082
  unreachable, !dbg !5082

; <label>:98:                                     ; preds = %92
  call void @llvm.dbg.value(metadata %"class.std::vector"* %5, i64 0, metadata !4912, metadata !2015), !dbg !4929
  call void @llvm.dbg.value(metadata %"class.std::vector"* undef, i64 0, metadata !4915, metadata !2015), !dbg !5019
  call void @llvm.dbg.value(metadata %"class.std::vector"* undef, i64 0, metadata !3711, metadata !2015) #10, !dbg !5020
  call void @llvm.dbg.value(metadata %"class.std::vector"* %5, i64 0, metadata !3714, metadata !2015) #10, !dbg !5022
  call void @llvm.dbg.value(metadata %"class.std::vector"* %5, i64 0, metadata !2039, metadata !2015) #10, !dbg !5023
  call void @llvm.dbg.value(metadata %"class.std::vector"* undef, i64 0, metadata !3718, metadata !2015) #10, !dbg !5025
  call void @llvm.dbg.value(metadata i64 %49, i64 0, metadata !3721, metadata !2015) #10, !dbg !5027
  call void @llvm.dbg.value(metadata %"class.std::allocator"* undef, i64 0, metadata !3722, metadata !2015) #10, !dbg !5028
  call void @llvm.dbg.value(metadata %"class.std::vector"* undef, i64 0, metadata !3727, metadata !2015) #10, !dbg !5029
  call void @llvm.dbg.value(metadata i64 %49, i64 0, metadata !3730, metadata !2015) #10, !dbg !5031
  call void @llvm.dbg.value(metadata %"class.std::vector"* undef, i64 0, metadata !2067, metadata !2015) #10, !dbg !5032
  call void @llvm.dbg.value(metadata i64 %49, i64 0, metadata !2064, metadata !2015) #10, !dbg !5034
  call void @llvm.dbg.value(metadata i64 %49, i64 0, metadata !2071, metadata !2015) #10, !dbg !5079
  call void @llvm.dbg.value(metadata i8* null, i64 0, metadata !2076, metadata !2015) #10, !dbg !5081
  %99 = call i8* @_Znwm(i64 %42) #10, !dbg !5083
  %100 = bitcast i8* %99 to i64*, !dbg !5084
  call void @llvm.dbg.value(metadata i64** %15, i64 0, metadata !3738, metadata !2058) #10, !dbg !5035
  call void @llvm.dbg.declare(metadata %"class.__gnu_cxx::__normal_iterator.21"* undef, metadata !3745, metadata !2015) #10, !dbg !5037
  call void @llvm.dbg.declare(metadata %"class.__gnu_cxx::__normal_iterator.21"* undef, metadata !3738, metadata !2015) #10, !dbg !5035
  call void @llvm.dbg.value(metadata i64* %100, i64 0, metadata !3746, metadata !2015) #10, !dbg !5038
  call void @llvm.dbg.value(metadata i64** %15, i64 0, metadata !3753, metadata !2058) #10, !dbg !5039
  call void @llvm.dbg.declare(metadata %"class.__gnu_cxx::__normal_iterator.21"* undef, metadata !3759, metadata !2015) #10, !dbg !5041
  call void @llvm.dbg.declare(metadata %"class.__gnu_cxx::__normal_iterator.21"* undef, metadata !3753, metadata !2015) #10, !dbg !5039
  call void @llvm.dbg.value(metadata i64* %100, i64 0, metadata !3760, metadata !2015) #10, !dbg !5042
  call void @llvm.dbg.value(metadata i64** %15, i64 0, metadata !3765, metadata !2058) #10, !dbg !5043
  call void @llvm.dbg.declare(metadata %"class.__gnu_cxx::__normal_iterator.21"* undef, metadata !3769, metadata !2015) #10, !dbg !5045
  call void @llvm.dbg.declare(metadata %"class.__gnu_cxx::__normal_iterator.21"* undef, metadata !3765, metadata !2015) #10, !dbg !5043
  call void @llvm.dbg.value(metadata i64* %100, i64 0, metadata !3770, metadata !2015) #10, !dbg !5046
  call void @llvm.dbg.value(metadata i64** %15, i64 0, metadata !3775, metadata !2058) #10, !dbg !5047
  call void @llvm.dbg.declare(metadata %"class.__gnu_cxx::__normal_iterator.21"* undef, metadata !3780, metadata !2015) #10, !dbg !5049
  call void @llvm.dbg.declare(metadata %"class.__gnu_cxx::__normal_iterator.21"* undef, metadata !3775, metadata !2015) #10, !dbg !5047
  call void @llvm.dbg.value(metadata i64* %100, i64 0, metadata !3781, metadata !2015) #10, !dbg !5050
  call void @llvm.dbg.value(metadata i64** %15, i64 0, metadata !3786, metadata !2058) #10, !dbg !5051
  call void @llvm.dbg.declare(metadata %"class.__gnu_cxx::__normal_iterator.21"* undef, metadata !3792, metadata !2015) #10, !dbg !5053
  call void @llvm.dbg.declare(metadata %"class.__gnu_cxx::__normal_iterator.21"* undef, metadata !3786, metadata !2015) #10, !dbg !5051
  call void @llvm.dbg.value(metadata i64* %100, i64 0, metadata !3793, metadata !2015) #10, !dbg !5054
  call void @llvm.dbg.value(metadata i64** %15, i64 0, metadata !3798, metadata !2058) #10, !dbg !5055
  call void @llvm.dbg.value(metadata i64* %100, i64 0, metadata !3804, metadata !2015) #10, !dbg !5057
  call void @llvm.dbg.value(metadata i8 1, i64 0, metadata !3805, metadata !2015) #10, !dbg !5058
  call void @llvm.dbg.value(metadata i64** %15, i64 0, metadata !3810, metadata !2058) #10, !dbg !5059
  call void @llvm.dbg.value(metadata i64* %100, i64 0, metadata !3818, metadata !2015) #10, !dbg !5061
  br i1 %51, label %102, label %101, !dbg !5062

; <label>:101:                                    ; preds = %98
  call void @llvm.memmove.p0i8.p0i8.i64(i8* nonnull %99, i8* %54, i64 %42, i32 8, i1 false) #10, !dbg !5063
  br label %102, !dbg !5063

; <label>:102:                                    ; preds = %98, %101
  call void @llvm.dbg.value(metadata %"class.std::vector"* undef, i64 0, metadata !4915, metadata !2015), !dbg !5019
  tail call void @llvm.dbg.value(metadata %"class.std::vector"* undef, i64 0, metadata !4854, metadata !2015), !dbg !5064
  tail call void @llvm.dbg.value(metadata %"class.std::vector"* undef, i64 0, metadata !2039, metadata !2015), !dbg !5066
  tail call void @llvm.dbg.value(metadata i32 %45, i64 0, metadata !4855, metadata !2015), !dbg !5068
  tail call void @llvm.dbg.value(metadata i32 1, i64 0, metadata !4856, metadata !2015), !dbg !5069
  tail call void @llvm.dbg.value(metadata i32 1, i64 0, metadata !4856, metadata !2015), !dbg !5069
  br i1 %52, label %103, label %152, !dbg !5070

; <label>:103:                                    ; preds = %102
  br i1 %76, label %130, label %104, !dbg !5085

; <label>:104:                                    ; preds = %103
  br label %105, !dbg !5085

; <label>:105:                                    ; preds = %169, %104
  %106 = phi i64 [ 1, %104 ], [ %172, %169 ]
  %107 = phi i64 [ %77, %104 ], [ %173, %169 ]
  tail call void @llvm.dbg.value(metadata i32 undef, i64 0, metadata !4856, metadata !2015), !dbg !5069
  tail call void @llvm.dbg.value(metadata %"class.std::vector"* undef, i64 0, metadata !4154, metadata !2015), !dbg !5074
  tail call void @llvm.dbg.value(metadata i64 %106, i64 0, metadata !4157, metadata !2015), !dbg !5076
  %108 = getelementptr inbounds i64, i64* %100, i64 %106, !dbg !5085
  %109 = load i64, i64* %108, align 8, !dbg !5086, !tbaa !2276
  %110 = shl i64 %109, 32, !dbg !5087
  %111 = ashr exact i64 %110, 32, !dbg !5087
  br label %112

; <label>:112:                                    ; preds = %118, %105
  %113 = phi i64 [ %106, %105 ], [ %114, %118 ]
  %114 = add nsw i64 %113, -1
  tail call void @llvm.dbg.value(metadata %"class.std::vector"* undef, i64 0, metadata !4154, metadata !2015), !dbg !5077
  tail call void @llvm.dbg.value(metadata i64 %114, i64 0, metadata !4157, metadata !2015), !dbg !5088
  %115 = getelementptr inbounds i64, i64* %100, i64 %114, !dbg !5089
  %116 = load i64, i64* %115, align 8, !dbg !5090, !tbaa !2276
  %117 = icmp sgt i64 %116, %111, !dbg !5091
  br i1 %117, label %118, label %121, !dbg !5092

; <label>:118:                                    ; preds = %112
  tail call void @llvm.dbg.value(metadata %"class.std::vector"* undef, i64 0, metadata !4154, metadata !2015), !dbg !5093
  tail call void @llvm.dbg.value(metadata i64 %114, i64 0, metadata !4157, metadata !2015), !dbg !5095
  tail call void @llvm.dbg.value(metadata %"class.std::vector"* undef, i64 0, metadata !4154, metadata !2015), !dbg !5096
  tail call void @llvm.dbg.value(metadata i64 %113, i64 0, metadata !4157, metadata !2015), !dbg !5098
  %119 = getelementptr inbounds i64, i64* %100, i64 %113, !dbg !5099
  store i64 %116, i64* %119, align 8, !dbg !5100, !tbaa !2276
  %120 = icmp sgt i64 %113, 1, !dbg !5101
  br i1 %120, label %112, label %121, !dbg !5102, !llvm.loop !4899

; <label>:121:                                    ; preds = %118, %112
  %122 = phi i64 [ %113, %112 ], [ %114, %118 ]
  tail call void @llvm.dbg.value(metadata %"class.std::vector"* undef, i64 0, metadata !4154, metadata !2015), !dbg !5103
  tail call void @llvm.dbg.value(metadata i64 undef, i64 0, metadata !4157, metadata !2015), !dbg !5105
  %123 = getelementptr inbounds i64, i64* %100, i64 %122, !dbg !5106
  store i64 %111, i64* %123, align 8, !dbg !5073, !tbaa !2276
  %124 = add nuw nsw i64 %106, 1, !dbg !5107
  tail call void @llvm.dbg.value(metadata i32 undef, i64 0, metadata !4856, metadata !2015), !dbg !5069
  tail call void @llvm.dbg.value(metadata %"class.std::vector"* undef, i64 0, metadata !4154, metadata !2015), !dbg !5074
  tail call void @llvm.dbg.value(metadata i64 %106, i64 0, metadata !4157, metadata !2015), !dbg !5076
  %125 = getelementptr inbounds i64, i64* %100, i64 %124, !dbg !5085
  %126 = load i64, i64* %125, align 8, !dbg !5086, !tbaa !2276
  %127 = shl i64 %126, 32, !dbg !5087
  %128 = ashr exact i64 %127, 32, !dbg !5087
  br label %160

; <label>:129:                                    ; preds = %169
  br label %130, !dbg !5108

; <label>:130:                                    ; preds = %129, %103
  %131 = phi i64 [ 1, %103 ], [ %172, %129 ]
  br i1 %78, label %151, label %132, !dbg !5108

; <label>:132:                                    ; preds = %130
  br label %133, !dbg !5108

; <label>:133:                                    ; preds = %132
  tail call void @llvm.dbg.value(metadata i32 undef, i64 0, metadata !4856, metadata !2015), !dbg !5069
  tail call void @llvm.dbg.value(metadata %"class.std::vector"* undef, i64 0, metadata !4154, metadata !2015), !dbg !5074
  tail call void @llvm.dbg.value(metadata i64 %131, i64 0, metadata !4157, metadata !2015), !dbg !5076
  %134 = getelementptr inbounds i64, i64* %100, i64 %131, !dbg !5085
  %135 = load i64, i64* %134, align 8, !dbg !5086, !tbaa !2276
  %136 = shl i64 %135, 32, !dbg !5087
  %137 = ashr exact i64 %136, 32, !dbg !5087
  br label %138

; <label>:138:                                    ; preds = %144, %133
  %139 = phi i64 [ %131, %133 ], [ %140, %144 ]
  %140 = add nsw i64 %139, -1
  tail call void @llvm.dbg.value(metadata %"class.std::vector"* undef, i64 0, metadata !4154, metadata !2015), !dbg !5077
  tail call void @llvm.dbg.value(metadata i64 %140, i64 0, metadata !4157, metadata !2015), !dbg !5088
  %141 = getelementptr inbounds i64, i64* %100, i64 %140, !dbg !5089
  %142 = load i64, i64* %141, align 8, !dbg !5090, !tbaa !2276
  %143 = icmp sgt i64 %142, %137, !dbg !5091
  br i1 %143, label %144, label %147, !dbg !5092

; <label>:144:                                    ; preds = %138
  tail call void @llvm.dbg.value(metadata %"class.std::vector"* undef, i64 0, metadata !4154, metadata !2015), !dbg !5093
  tail call void @llvm.dbg.value(metadata i64 %140, i64 0, metadata !4157, metadata !2015), !dbg !5095
  tail call void @llvm.dbg.value(metadata %"class.std::vector"* undef, i64 0, metadata !4154, metadata !2015), !dbg !5096
  tail call void @llvm.dbg.value(metadata i64 %139, i64 0, metadata !4157, metadata !2015), !dbg !5098
  %145 = getelementptr inbounds i64, i64* %100, i64 %139, !dbg !5099
  store i64 %142, i64* %145, align 8, !dbg !5100, !tbaa !2276
  %146 = icmp sgt i64 %139, 1, !dbg !5101
  br i1 %146, label %138, label %147, !dbg !5102, !llvm.loop !4899

; <label>:147:                                    ; preds = %144, %138
  %148 = phi i64 [ %139, %138 ], [ %140, %144 ]
  tail call void @llvm.dbg.value(metadata %"class.std::vector"* undef, i64 0, metadata !4154, metadata !2015), !dbg !5103
  tail call void @llvm.dbg.value(metadata i64 undef, i64 0, metadata !4157, metadata !2015), !dbg !5105
  %149 = getelementptr inbounds i64, i64* %100, i64 %148, !dbg !5106
  store i64 %137, i64* %149, align 8, !dbg !5073, !tbaa !2276
  br label %150, !dbg !5070

; <label>:150:                                    ; preds = %147
  br label %151, !dbg !5108

; <label>:151:                                    ; preds = %130, %150
  br label %152, !dbg !5108

; <label>:152:                                    ; preds = %151, %102
  call void @llvm.dbg.value(metadata %"class.std::vector"* undef, i64 0, metadata !4915, metadata !2015), !dbg !5019
  call void @llvm.dbg.value(metadata %"class.std::vector"* undef, i64 0, metadata !3824, metadata !2015) #10, !dbg !5113
  call void @llvm.dbg.value(metadata %"class.std::vector"* undef, i64 0, metadata !3829, metadata !2015) #10, !dbg !5114
  call void @llvm.dbg.value(metadata %"class.std::vector"* undef, i64 0, metadata !2193, metadata !2015) #10, !dbg !5115
  call void @llvm.dbg.value(metadata i64* %100, i64 0, metadata !2190, metadata !2015) #10, !dbg !5116
  call void @llvm.dbg.value(metadata i64* %100, i64 0, metadata !2410, metadata !2015) #10, !dbg !5117
  call void @_ZdlPv(i8* nonnull %99) #10, !dbg !5108
  br label %88, !dbg !5011, !llvm.loop !5071

; <label>:153:                                    ; preds = %62
  br label %155, !dbg !5118

; <label>:154:                                    ; preds = %92
  br label %155, !dbg !5118

; <label>:155:                                    ; preds = %154, %153, %83
  call void @_ZN9benchmark5State17FinishKeepRunningEv(%"class.benchmark::State"* nonnull %0) #10, !dbg !5118
  call void @llvm.lifetime.end.p0i8(i64 8, i8* nonnull %11) #10, !dbg !5119
  call void @llvm.dbg.value(metadata %"class.std::vector"* %5, i64 0, metadata !4912, metadata !2015), !dbg !4929
  call void @llvm.dbg.value(metadata %"class.std::vector"* %5, i64 0, metadata !3824, metadata !2015) #10, !dbg !5120
  call void @llvm.dbg.value(metadata %"class.std::vector"* %5, i64 0, metadata !3829, metadata !2015) #10, !dbg !5122
  call void @llvm.dbg.value(metadata %"class.std::vector"* %5, i64 0, metadata !2193, metadata !2015) #10, !dbg !5124
  call void @llvm.dbg.value(metadata i64* %14, i64 0, metadata !2190, metadata !2015) #10, !dbg !5126
  %156 = icmp eq i64* %14, null, !dbg !5127
  br i1 %156, label %159, label %157, !dbg !5128

; <label>:157:                                    ; preds = %155
  call void @llvm.dbg.value(metadata i64* %14, i64 0, metadata !2410, metadata !2015) #10, !dbg !5129
  %158 = bitcast i64* %14 to i8*, !dbg !5131
  call void @_ZdlPv(i8* %158) #10, !dbg !5132
  br label %159, !dbg !5133

; <label>:159:                                    ; preds = %155, %157
  call void @llvm.lifetime.end.p0i8(i64 24, i8* nonnull %7) #10, !dbg !5119
  ret void, !dbg !5119

; <label>:160:                                    ; preds = %166, %121
  %161 = phi i64 [ %124, %121 ], [ %162, %166 ]
  %162 = add nsw i64 %161, -1
  tail call void @llvm.dbg.value(metadata %"class.std::vector"* undef, i64 0, metadata !4154, metadata !2015), !dbg !5077
  tail call void @llvm.dbg.value(metadata i64 %114, i64 0, metadata !4157, metadata !2015), !dbg !5088
  %163 = getelementptr inbounds i64, i64* %100, i64 %162, !dbg !5089
  %164 = load i64, i64* %163, align 8, !dbg !5090, !tbaa !2276
  %165 = icmp sgt i64 %164, %128, !dbg !5091
  br i1 %165, label %166, label %169, !dbg !5092

; <label>:166:                                    ; preds = %160
  tail call void @llvm.dbg.value(metadata %"class.std::vector"* undef, i64 0, metadata !4154, metadata !2015), !dbg !5093
  tail call void @llvm.dbg.value(metadata i64 %114, i64 0, metadata !4157, metadata !2015), !dbg !5095
  tail call void @llvm.dbg.value(metadata %"class.std::vector"* undef, i64 0, metadata !4154, metadata !2015), !dbg !5096
  tail call void @llvm.dbg.value(metadata i64 %113, i64 0, metadata !4157, metadata !2015), !dbg !5098
  %167 = getelementptr inbounds i64, i64* %100, i64 %161, !dbg !5099
  store i64 %164, i64* %167, align 8, !dbg !5100, !tbaa !2276
  %168 = icmp sgt i64 %161, 1, !dbg !5101
  br i1 %168, label %160, label %169, !dbg !5102, !llvm.loop !4899

; <label>:169:                                    ; preds = %166, %160
  %170 = phi i64 [ %161, %160 ], [ %162, %166 ]
  tail call void @llvm.dbg.value(metadata %"class.std::vector"* undef, i64 0, metadata !4154, metadata !2015), !dbg !5103
  tail call void @llvm.dbg.value(metadata i64 undef, i64 0, metadata !4157, metadata !2015), !dbg !5105
  %171 = getelementptr inbounds i64, i64* %100, i64 %170, !dbg !5106
  store i64 %128, i64* %171, align 8, !dbg !5073, !tbaa !2276
  %172 = add nsw i64 %106, 2, !dbg !5107
  %173 = add i64 %107, -2, !dbg !5070
  %174 = icmp eq i64 %173, 0, !dbg !5070
  br i1 %174, label %129, label %105, !dbg !5070, !llvm.loop !4907
}

; Function Attrs: nounwind uwtable
define void @_Z6bubbleRSt6vectorIlSaIlEE(%"class.std::vector"* nocapture readonly dereferenceable(24)) local_unnamed_addr #1 !dbg !5134 {
  tail call void @llvm.dbg.value(metadata %"class.std::vector"* %0, i64 0, metadata !5136, metadata !2015), !dbg !5142
  tail call void @llvm.dbg.value(metadata %"class.std::vector"* %0, i64 0, metadata !2039, metadata !2015), !dbg !5143
  %2 = getelementptr inbounds %"class.std::vector", %"class.std::vector"* %0, i64 0, i32 0, i32 0, i32 1, !dbg !5145
  %3 = bitcast i64** %2 to i64*, !dbg !5145
  %4 = load i64, i64* %3, align 8, !dbg !5145, !tbaa !2205
  %5 = bitcast %"class.std::vector"* %0 to i64*, !dbg !5146
  %6 = load i64, i64* %5, align 8, !dbg !5146
  %7 = sub i64 %4, %6, !dbg !5147
  %8 = lshr exact i64 %7, 3, !dbg !5147
  %9 = trunc i64 %8 to i32, !dbg !5148
  tail call void @llvm.dbg.value(metadata i32 %9, i64 0, metadata !5137, metadata !2015), !dbg !5149
  %10 = inttoptr i64 %6 to i64*
  br label %11, !dbg !5150, !llvm.loop !5151

; <label>:11:                                     ; preds = %43, %1
  %12 = phi i32 [ %9, %1 ], [ %44, %43 ]
  tail call void @llvm.dbg.value(metadata i32 %12, i64 0, metadata !5137, metadata !2015), !dbg !5149
  tail call void @llvm.dbg.value(metadata i32 0, i64 0, metadata !5138, metadata !2015), !dbg !5153
  tail call void @llvm.dbg.value(metadata i32 1, i64 0, metadata !5140, metadata !2015), !dbg !5154
  tail call void @llvm.dbg.value(metadata i32 1, i64 0, metadata !5140, metadata !2015), !dbg !5154
  tail call void @llvm.dbg.value(metadata i32 0, i64 0, metadata !5138, metadata !2015), !dbg !5153
  %13 = icmp sgt i32 %12, 1, !dbg !5155
  br i1 %13, label %14, label %65, !dbg !5157

; <label>:14:                                     ; preds = %11
  %15 = load i64, i64* %10, align 8, !tbaa !2276
  %16 = and i32 %12, 1, !dbg !5158
  %17 = xor i32 %16, 1, !dbg !5158
  %18 = icmp eq i32 %12, 2, !dbg !5158
  br i1 %18, label %25, label %19, !dbg !5158

; <label>:19:                                     ; preds = %14
  %20 = zext i32 %17 to i64, !dbg !5158
  %21 = zext i32 %12 to i64
  %22 = add nsw i64 %21, -1, !dbg !5158
  %23 = sub nsw i64 %22, %20, !dbg !5158
  br label %46, !dbg !5158

; <label>:24:                                     ; preds = %69
  br label %25, !dbg !5161

; <label>:25:                                     ; preds = %24, %14
  %26 = phi i32 [ undef, %14 ], [ %71, %24 ]
  %27 = phi i64 [ %15, %14 ], [ %70, %24 ]
  %28 = phi i64 [ 1, %14 ], [ %72, %24 ]
  %29 = phi i32 [ 0, %14 ], [ %71, %24 ]
  %30 = icmp eq i32 %17, 0, !dbg !5161
  br i1 %30, label %43, label %31, !dbg !5161

; <label>:31:                                     ; preds = %25
  br label %32, !dbg !5161

; <label>:32:                                     ; preds = %31
  tail call void @llvm.dbg.value(metadata i32 %29, i64 0, metadata !5138, metadata !2015), !dbg !5153
  tail call void @llvm.dbg.value(metadata i32 undef, i64 0, metadata !5140, metadata !2015), !dbg !5154
  tail call void @llvm.dbg.value(metadata %"class.std::vector"* %0, i64 0, metadata !4154, metadata !2015), !dbg !5162
  tail call void @llvm.dbg.value(metadata i64 %37, i64 0, metadata !4157, metadata !2015), !dbg !5164
  tail call void @llvm.dbg.value(metadata %"class.std::vector"* %0, i64 0, metadata !4154, metadata !2015), !dbg !5165
  tail call void @llvm.dbg.value(metadata i64 %28, i64 0, metadata !4157, metadata !2015), !dbg !5167
  %33 = getelementptr inbounds i64, i64* %10, i64 %28, !dbg !5168
  %34 = load i64, i64* %33, align 8, !dbg !5169, !tbaa !2276
  %35 = icmp sgt i64 %27, %34, !dbg !5170
  br i1 %35, label %36, label %40, !dbg !5171

; <label>:36:                                     ; preds = %32
  %37 = add nsw i64 %28, -1, !dbg !5158
  %38 = getelementptr inbounds i64, i64* %10, i64 %37, !dbg !5172
  tail call void @llvm.dbg.value(metadata %"class.std::vector"* %0, i64 0, metadata !4154, metadata !2015), !dbg !5173
  tail call void @llvm.dbg.value(metadata i64 %37, i64 0, metadata !4157, metadata !2015), !dbg !5176
  tail call void @llvm.dbg.value(metadata %"class.std::vector"* %0, i64 0, metadata !4154, metadata !2015), !dbg !5177
  tail call void @llvm.dbg.value(metadata i64 %28, i64 0, metadata !4157, metadata !2015), !dbg !5179
  tail call void @llvm.dbg.value(metadata i64* %38, i64 0, metadata !3880, metadata !2015), !dbg !5180
  tail call void @llvm.dbg.value(metadata i64* %33, i64 0, metadata !3886, metadata !2015), !dbg !5182
  tail call void @llvm.dbg.value(metadata i64 %27, i64 0, metadata !3887, metadata !2015), !dbg !5183
  store i64 %34, i64* %38, align 8, !dbg !5184, !tbaa !2276
  store i64 %27, i64* %33, align 8, !dbg !5185, !tbaa !2276
  tail call void @llvm.dbg.value(metadata i32 undef, i64 0, metadata !5138, metadata !2015), !dbg !5153
  %39 = trunc i64 %28 to i32, !dbg !5186
  br label %40, !dbg !5186

; <label>:40:                                     ; preds = %36, %32
  %41 = phi i32 [ %39, %36 ], [ %29, %32 ]
  tail call void @llvm.dbg.value(metadata i32 %41, i64 0, metadata !5138, metadata !2015), !dbg !5153
  tail call void @llvm.dbg.value(metadata i32 %41, i64 0, metadata !5138, metadata !2015), !dbg !5153
  br label %42, !dbg !5157

; <label>:42:                                     ; preds = %40
  br label %43, !dbg !5161

; <label>:43:                                     ; preds = %25, %42
  %44 = phi i32 [ %26, %25 ], [ %41, %42 ]
  tail call void @llvm.dbg.value(metadata i32 undef, i64 0, metadata !5137, metadata !2015), !dbg !5149
  %45 = icmp sgt i32 %44, 0, !dbg !5161
  br i1 %45, label %11, label %65, !dbg !5187, !llvm.loop !5151

; <label>:46:                                     ; preds = %69, %19
  %47 = phi i64 [ %15, %19 ], [ %70, %69 ], !dbg !5188
  %48 = phi i64 [ 1, %19 ], [ %72, %69 ]
  %49 = phi i32 [ 0, %19 ], [ %71, %69 ]
  %50 = phi i64 [ %23, %19 ], [ %73, %69 ]
  tail call void @llvm.dbg.value(metadata i32 %49, i64 0, metadata !5138, metadata !2015), !dbg !5153
  tail call void @llvm.dbg.value(metadata i32 undef, i64 0, metadata !5140, metadata !2015), !dbg !5154
  tail call void @llvm.dbg.value(metadata %"class.std::vector"* %0, i64 0, metadata !4154, metadata !2015), !dbg !5162
  tail call void @llvm.dbg.value(metadata i64 %55, i64 0, metadata !4157, metadata !2015), !dbg !5164
  tail call void @llvm.dbg.value(metadata %"class.std::vector"* %0, i64 0, metadata !4154, metadata !2015), !dbg !5165
  tail call void @llvm.dbg.value(metadata i64 %48, i64 0, metadata !4157, metadata !2015), !dbg !5167
  %51 = getelementptr inbounds i64, i64* %10, i64 %48, !dbg !5168
  %52 = load i64, i64* %51, align 8, !dbg !5169, !tbaa !2276
  %53 = icmp sgt i64 %47, %52, !dbg !5170
  br i1 %53, label %54, label %58, !dbg !5171

; <label>:54:                                     ; preds = %46
  %55 = add nsw i64 %48, -1, !dbg !5158
  %56 = getelementptr inbounds i64, i64* %10, i64 %55, !dbg !5172
  tail call void @llvm.dbg.value(metadata %"class.std::vector"* %0, i64 0, metadata !4154, metadata !2015), !dbg !5173
  tail call void @llvm.dbg.value(metadata i64 %55, i64 0, metadata !4157, metadata !2015), !dbg !5176
  tail call void @llvm.dbg.value(metadata %"class.std::vector"* %0, i64 0, metadata !4154, metadata !2015), !dbg !5177
  tail call void @llvm.dbg.value(metadata i64 %48, i64 0, metadata !4157, metadata !2015), !dbg !5179
  tail call void @llvm.dbg.value(metadata i64* %56, i64 0, metadata !3880, metadata !2015), !dbg !5180
  tail call void @llvm.dbg.value(metadata i64* %51, i64 0, metadata !3886, metadata !2015), !dbg !5182
  tail call void @llvm.dbg.value(metadata i64 %47, i64 0, metadata !3887, metadata !2015), !dbg !5183
  store i64 %52, i64* %56, align 8, !dbg !5184, !tbaa !2276
  store i64 %47, i64* %51, align 8, !dbg !5185, !tbaa !2276
  tail call void @llvm.dbg.value(metadata i32 undef, i64 0, metadata !5138, metadata !2015), !dbg !5153
  %57 = trunc i64 %48 to i32, !dbg !5186
  br label %58, !dbg !5186

; <label>:58:                                     ; preds = %46, %54
  %59 = phi i64 [ %47, %54 ], [ %52, %46 ]
  %60 = phi i32 [ %57, %54 ], [ %49, %46 ]
  tail call void @llvm.dbg.value(metadata i32 %60, i64 0, metadata !5138, metadata !2015), !dbg !5153
  %61 = add nuw nsw i64 %48, 1, !dbg !5189
  tail call void @llvm.dbg.value(metadata i32 %60, i64 0, metadata !5138, metadata !2015), !dbg !5153
  tail call void @llvm.dbg.value(metadata i32 %49, i64 0, metadata !5138, metadata !2015), !dbg !5153
  tail call void @llvm.dbg.value(metadata i32 undef, i64 0, metadata !5140, metadata !2015), !dbg !5154
  tail call void @llvm.dbg.value(metadata %"class.std::vector"* %0, i64 0, metadata !4154, metadata !2015), !dbg !5162
  tail call void @llvm.dbg.value(metadata i64 %55, i64 0, metadata !4157, metadata !2015), !dbg !5164
  tail call void @llvm.dbg.value(metadata %"class.std::vector"* %0, i64 0, metadata !4154, metadata !2015), !dbg !5165
  tail call void @llvm.dbg.value(metadata i64 %48, i64 0, metadata !4157, metadata !2015), !dbg !5167
  %62 = getelementptr inbounds i64, i64* %10, i64 %61, !dbg !5168
  %63 = load i64, i64* %62, align 8, !dbg !5169, !tbaa !2276
  %64 = icmp sgt i64 %59, %63, !dbg !5170
  br i1 %64, label %66, label %69, !dbg !5171

; <label>:65:                                     ; preds = %11, %43
  ret void, !dbg !5190

; <label>:66:                                     ; preds = %58
  %67 = getelementptr inbounds i64, i64* %10, i64 %48, !dbg !5172
  tail call void @llvm.dbg.value(metadata %"class.std::vector"* %0, i64 0, metadata !4154, metadata !2015), !dbg !5173
  tail call void @llvm.dbg.value(metadata i64 %55, i64 0, metadata !4157, metadata !2015), !dbg !5176
  tail call void @llvm.dbg.value(metadata %"class.std::vector"* %0, i64 0, metadata !4154, metadata !2015), !dbg !5177
  tail call void @llvm.dbg.value(metadata i64 %48, i64 0, metadata !4157, metadata !2015), !dbg !5179
  tail call void @llvm.dbg.value(metadata i64* %56, i64 0, metadata !3880, metadata !2015), !dbg !5180
  tail call void @llvm.dbg.value(metadata i64* %51, i64 0, metadata !3886, metadata !2015), !dbg !5182
  tail call void @llvm.dbg.value(metadata i64 %47, i64 0, metadata !3887, metadata !2015), !dbg !5183
  store i64 %63, i64* %67, align 8, !dbg !5184, !tbaa !2276
  store i64 %59, i64* %62, align 8, !dbg !5185, !tbaa !2276
  tail call void @llvm.dbg.value(metadata i32 undef, i64 0, metadata !5138, metadata !2015), !dbg !5153
  %68 = trunc i64 %61 to i32, !dbg !5186
  br label %69, !dbg !5186

; <label>:69:                                     ; preds = %66, %58
  %70 = phi i64 [ %59, %66 ], [ %63, %58 ]
  %71 = phi i32 [ %68, %66 ], [ %60, %58 ]
  tail call void @llvm.dbg.value(metadata i32 %60, i64 0, metadata !5138, metadata !2015), !dbg !5153
  %72 = add nsw i64 %48, 2, !dbg !5189
  tail call void @llvm.dbg.value(metadata i32 %60, i64 0, metadata !5138, metadata !2015), !dbg !5153
  %73 = add i64 %50, -2, !dbg !5157
  %74 = icmp eq i64 %73, 0, !dbg !5157
  br i1 %74, label %24, label %46, !dbg !5157, !llvm.loop !5191
}

; Function Attrs: nounwind uwtable
define void @_Z9BM_bubbleRN9benchmark5StateE(%"class.benchmark::State"* dereferenceable(144)) #1 !dbg !5193 {
  %2 = alloca <2 x i64>, align 16
  %3 = bitcast <2 x i64>* %2 to %"class.std::uniform_int_distribution"*
  %4 = alloca %"struct.std::uniform_int_distribution<unsigned long>::param_type", align 8
  %5 = alloca %"class.std::vector", align 8
  %6 = alloca %"class.std::linear_congruential_engine", align 8
  tail call void @llvm.dbg.value(metadata %"class.benchmark::State"* %0, i64 0, metadata !5195, metadata !2015), !dbg !5203
  %7 = bitcast %"class.std::vector"* %5 to i8*, !dbg !5204
  call void @llvm.lifetime.start.p0i8(i64 24, i8* nonnull %7) #10, !dbg !5204
  tail call void @llvm.dbg.value(metadata %"class.benchmark::State"* %0, i64 0, metadata !3554, metadata !2015), !dbg !5205
  tail call void @llvm.dbg.value(metadata i64 0, i64 0, metadata !3557, metadata !2015), !dbg !5207
  tail call void @llvm.dbg.value(metadata %"class.benchmark::State"* %0, i64 0, metadata !3562, metadata !3567), !dbg !5208
  tail call void @llvm.dbg.value(metadata i64 0, i64 0, metadata !3565, metadata !2015), !dbg !5210
  %8 = getelementptr inbounds %"class.benchmark::State", %"class.benchmark::State"* %0, i64 0, i32 3, i32 0, i32 0, i32 0, !dbg !5211
  %9 = load i32*, i32** %8, align 8, !dbg !5211, !tbaa !3572
  %10 = load i32, i32* %9, align 4, !dbg !5212, !tbaa !3576
  tail call void @llvm.dbg.value(metadata %"class.std::vector"* %5, i64 0, metadata !5196, metadata !2015), !dbg !5213
  call void @_Z5rangei(%"class.std::vector"* nonnull sret %5, i32 %10), !dbg !5214
  %11 = bitcast %"class.std::linear_congruential_engine"* %6 to i8*, !dbg !5215
  call void @llvm.lifetime.start.p0i8(i64 8, i8* nonnull %11) #10, !dbg !5215
  tail call void @llvm.dbg.value(metadata %"class.std::linear_congruential_engine"* %6, i64 0, metadata !5197, metadata !2015), !dbg !5216
  %12 = getelementptr inbounds %"class.std::linear_congruential_engine", %"class.std::linear_congruential_engine"* %6, i64 0, i32 0
  store i64 200, i64* %12, align 8, !tbaa !3582
  tail call void @llvm.dbg.value(metadata %"class.std::vector"* %5, i64 0, metadata !5196, metadata !2015), !dbg !5213
  tail call void @llvm.dbg.value(metadata %"class.std::vector"* %5, i64 0, metadata !3584, metadata !2015), !dbg !5217
  tail call void @llvm.dbg.value(metadata %"class.__gnu_cxx::__normal_iterator"* undef, i64 0, metadata !3589, metadata !2015), !dbg !5219
  tail call void @llvm.dbg.value(metadata %"class.std::vector"* %5, i64 0, metadata !3592, metadata !2015), !dbg !5221
  %13 = getelementptr inbounds %"class.std::vector", %"class.std::vector"* %5, i64 0, i32 0, i32 0, i32 0, !dbg !5222
  %14 = load i64*, i64** %13, align 8, !dbg !5222, !tbaa !2418
  tail call void @llvm.dbg.value(metadata %"class.std::vector"* %5, i64 0, metadata !5196, metadata !2015), !dbg !5213
  tail call void @llvm.dbg.value(metadata %"class.std::vector"* %5, i64 0, metadata !3598, metadata !2015), !dbg !5223
  %15 = getelementptr inbounds %"class.std::vector", %"class.std::vector"* %5, i64 0, i32 0, i32 0, i32 1, !dbg !5225
  tail call void @llvm.dbg.value(metadata %"class.__gnu_cxx::__normal_iterator"* undef, i64 0, metadata !3589, metadata !2015), !dbg !5226
  tail call void @llvm.dbg.value(metadata i64** %15, i64 0, metadata !3592, metadata !2015), !dbg !5228
  %16 = load i64*, i64** %15, align 8, !dbg !5229, !tbaa !2418
  tail call void @llvm.dbg.value(metadata %"class.std::linear_congruential_engine"* %6, i64 0, metadata !5197, metadata !2015), !dbg !5216
  %17 = ptrtoint i64* %14 to i64
  tail call void @llvm.dbg.value(metadata %"class.std::linear_congruential_engine"* %6, i64 0, metadata !3608, metadata !2015) #10, !dbg !5230
  tail call void @llvm.dbg.value(metadata %"class.__gnu_cxx::__normal_iterator"* undef, i64 0, metadata !3615, metadata !2015) #10, !dbg !5232
  tail call void @llvm.dbg.value(metadata %"class.__gnu_cxx::__normal_iterator"* undef, i64 0, metadata !3616, metadata !2015) #10, !dbg !5233
  tail call void @llvm.dbg.value(metadata %"class.__gnu_cxx::__normal_iterator"* undef, i64 0, metadata !3625, metadata !2015) #10, !dbg !5234
  tail call void @llvm.dbg.value(metadata %"class.__gnu_cxx::__normal_iterator"* undef, i64 0, metadata !3631, metadata !2015) #10, !dbg !5236
  %18 = icmp eq i64* %14, %16, !dbg !5237
  %19 = ptrtoint i64* %16 to i64, !dbg !5238
  br i1 %18, label %41, label %20, !dbg !5238

; <label>:20:                                     ; preds = %1
  %21 = bitcast <2 x i64>* %2 to i8*, !dbg !5239
  call void @llvm.lifetime.start.p0i8(i64 16, i8* nonnull %21) #10, !dbg !5239
  tail call void @llvm.dbg.value(metadata %"class.std::uniform_int_distribution"* %3, i64 0, metadata !3617, metadata !2015) #10, !dbg !5240
  tail call void @llvm.dbg.value(metadata %"class.std::uniform_int_distribution"* %3, i64 0, metadata !3640, metadata !2015) #10, !dbg !5241
  tail call void @llvm.dbg.value(metadata i64 0, i64 0, metadata !3643, metadata !2015) #10, !dbg !5243
  tail call void @llvm.dbg.value(metadata i64 -1, i64 0, metadata !3644, metadata !2015) #10, !dbg !5244
  tail call void @llvm.dbg.value(metadata %"class.std::uniform_int_distribution"* %3, i64 0, metadata !3649, metadata !2015) #10, !dbg !5245
  tail call void @llvm.dbg.value(metadata i64 0, i64 0, metadata !3652, metadata !2015) #10, !dbg !5247
  tail call void @llvm.dbg.value(metadata i64 -1, i64 0, metadata !3653, metadata !2015) #10, !dbg !5248
  store <2 x i64> <i64 0, i64 -1>, <2 x i64>* %2, align 16, !dbg !5249, !tbaa !2276
  tail call void @llvm.dbg.value(metadata %"class.__gnu_cxx::__normal_iterator"* undef, i64 0, metadata !3615, metadata !2015) #10, !dbg !5232
  tail call void @llvm.dbg.value(metadata %"class.__gnu_cxx::__normal_iterator"* undef, i64 0, metadata !3660, metadata !2015) #10, !dbg !5250
  %22 = getelementptr inbounds i64, i64* %14, i64 1
  tail call void @llvm.dbg.value(metadata %"class.__gnu_cxx::__normal_iterator"* undef, i64 0, metadata !3616, metadata !2015) #10, !dbg !5233
  tail call void @llvm.dbg.value(metadata %"class.__gnu_cxx::__normal_iterator"* undef, i64 0, metadata !3619, metadata !2015) #10, !dbg !5252
  tail call void @llvm.dbg.value(metadata %"class.__gnu_cxx::__normal_iterator"* undef, i64 0, metadata !3668, metadata !2015) #10, !dbg !5253
  tail call void @llvm.dbg.value(metadata %"class.__gnu_cxx::__normal_iterator"* undef, i64 0, metadata !3671, metadata !2015) #10, !dbg !5255
  %23 = icmp eq i64* %22, %16, !dbg !5256
  br i1 %23, label %29, label %24, !dbg !5257

; <label>:24:                                     ; preds = %20
  %25 = bitcast %"struct.std::uniform_int_distribution<unsigned long>::param_type"* %4 to i8*
  %26 = getelementptr inbounds %"struct.std::uniform_int_distribution<unsigned long>::param_type", %"struct.std::uniform_int_distribution<unsigned long>::param_type"* %4, i64 0, i32 0
  %27 = getelementptr inbounds %"struct.std::uniform_int_distribution<unsigned long>::param_type", %"struct.std::uniform_int_distribution<unsigned long>::param_type"* %4, i64 0, i32 1
  br label %30, !dbg !5257

; <label>:28:                                     ; preds = %30
  br label %29, !dbg !5258

; <label>:29:                                     ; preds = %28, %20
  call void @llvm.lifetime.end.p0i8(i64 16, i8* nonnull %21) #10, !dbg !5258
  br label %41, !dbg !5258

; <label>:30:                                     ; preds = %30, %24
  %31 = phi i64* [ %22, %24 ], [ %39, %30 ]
  %32 = ptrtoint i64* %31 to i64
  call void @llvm.lifetime.start.p0i8(i64 16, i8* nonnull %25) #10, !dbg !5259
  call void @llvm.dbg.value(metadata %"class.__gnu_cxx::__normal_iterator"* undef, i64 0, metadata !3615, metadata !2015) #10, !dbg !5232
  call void @llvm.dbg.value(metadata %"class.__gnu_cxx::__normal_iterator"* undef, i64 0, metadata !3619, metadata !2015) #10, !dbg !5252
  call void @llvm.dbg.value(metadata %"class.__gnu_cxx::__normal_iterator"* undef, i64 0, metadata !3845, metadata !2015) #10, !dbg !5260
  call void @llvm.dbg.value(metadata %"class.__gnu_cxx::__normal_iterator"* undef, i64 0, metadata !3850, metadata !2015) #10, !dbg !5262
  %33 = sub i64 %32, %17, !dbg !5263
  %34 = ashr exact i64 %33, 3, !dbg !5263
  call void @llvm.dbg.value(metadata %"struct.std::uniform_int_distribution<unsigned long>::param_type"* %4, i64 0, metadata !3649, metadata !2015) #10, !dbg !5264
  call void @llvm.dbg.value(metadata i64 0, i64 0, metadata !3652, metadata !2015) #10, !dbg !5266
  call void @llvm.dbg.value(metadata i64 %34, i64 0, metadata !3653, metadata !2015) #10, !dbg !5267
  store i64 0, i64* %26, align 8, !dbg !5268, !tbaa !3860
  store i64 %34, i64* %27, align 8, !dbg !5269, !tbaa !3863
  call void @llvm.dbg.value(metadata %"class.std::uniform_int_distribution"* %3, i64 0, metadata !3617, metadata !2015) #10, !dbg !5240
